	.section	__TEXT,__text,regular,pure_instructions
	.build_version macos, 13, 0	sdk_version 14, 0
	.file	1 "/Volumes/dfs/Computing-Private/KURMASZ/dive_in_buffer_overflow/problem_2" "array_underflow_gcc.c"
	.globl	_next_int                       ; -- Begin function next_int
	.p2align	2
_next_int:                              ; @next_int
Lfunc_begin0:
	.loc	1 14 0                          ; array_underflow_gcc.c:14:0
	.cfi_startproc
; %bb.0:
	sub	sp, sp, #32
	.cfi_def_cfa_offset 32
	stp	x29, x30, [sp, #16]             ; 16-byte Folded Spill
	add	x29, sp, #16
	.cfi_def_cfa w29, 16
	.cfi_offset w30, -8
	.cfi_offset w29, -16
Ltmp0:
	.loc	1 16 5 prologue_end             ; array_underflow_gcc.c:16:5
	mov	x9, sp
	sub	x8, x29, #4
	str	x8, [x9]
	adrp	x0, l_.str@PAGE
	add	x0, x0, l_.str@PAGEOFF
	bl	_scanf
	.loc	1 17 5                          ; array_underflow_gcc.c:17:5
	b	LBB0_1
LBB0_1:                                 ; =>This Inner Loop Header: Depth=1
	.loc	1 17 12 is_stmt 0               ; array_underflow_gcc.c:17:12
	bl	_getchar
	.loc	1 17 22                         ; array_underflow_gcc.c:17:22
	subs	w8, w0, #10
	cset	w8, eq
	.loc	1 17 5                          ; array_underflow_gcc.c:17:5
	tbnz	w8, #0, LBB0_3
	b	LBB0_2
LBB0_2:                                 ;   in Loop: Header=BB0_1 Depth=1
	b	LBB0_1
LBB0_3:
	.loc	1 19 12 is_stmt 1               ; array_underflow_gcc.c:19:12
	ldur	w0, [x29, #-4]
	.loc	1 19 5 is_stmt 0                ; array_underflow_gcc.c:19:5
	ldp	x29, x30, [sp, #16]             ; 16-byte Folded Reload
	add	sp, sp, #32
	ret
Ltmp1:
Lfunc_end0:
	.cfi_endproc
                                        ; -- End function
	.globl	_my_strncpy                     ; -- Begin function my_strncpy
	.p2align	2
_my_strncpy:                            ; @my_strncpy
Lfunc_begin1:
	.loc	1 23 0 is_stmt 1                ; array_underflow_gcc.c:23:0
	.cfi_startproc
; %bb.0:
	sub	sp, sp, #32
	.cfi_def_cfa_offset 32
	str	x0, [sp, #24]
	str	x1, [sp, #16]
	str	w2, [sp, #12]
Ltmp3:
	.loc	1 25 14 prologue_end            ; array_underflow_gcc.c:25:14
	str	wzr, [sp, #8]
	.loc	1 25 10 is_stmt 0               ; array_underflow_gcc.c:25:10
	b	LBB1_1
LBB1_1:                                 ; =>This Inner Loop Header: Depth=1
Ltmp4:
	.loc	1 25 21                         ; array_underflow_gcc.c:25:21
	ldr	w8, [sp, #8]
	.loc	1 25 25                         ; array_underflow_gcc.c:25:25
	ldr	w9, [sp, #12]
	.loc	1 25 23                         ; array_underflow_gcc.c:25:23
	subs	w8, w8, w9
	cset	w8, ge
Ltmp5:
	.loc	1 25 5                          ; array_underflow_gcc.c:25:5
	tbnz	w8, #0, LBB1_6
	b	LBB1_2
LBB1_2:                                 ;   in Loop: Header=BB1_1 Depth=1
Ltmp6:
	.loc	1 27 19 is_stmt 1               ; array_underflow_gcc.c:27:19
	ldr	x8, [sp, #16]
	.loc	1 27 23 is_stmt 0               ; array_underflow_gcc.c:27:23
	ldrsw	x9, [sp, #8]
	.loc	1 27 19                         ; array_underflow_gcc.c:27:19
	add	x8, x8, x9
	ldrb	w8, [x8]
	.loc	1 27 9                          ; array_underflow_gcc.c:27:9
	ldr	x9, [sp, #24]
	.loc	1 27 14                         ; array_underflow_gcc.c:27:14
	ldrsw	x10, [sp, #8]
	.loc	1 27 9                          ; array_underflow_gcc.c:27:9
	add	x9, x9, x10
	.loc	1 27 17                         ; array_underflow_gcc.c:27:17
	strb	w8, [x9]
Ltmp7:
	.loc	1 28 13 is_stmt 1               ; array_underflow_gcc.c:28:13
	ldr	x8, [sp, #16]
	.loc	1 28 17 is_stmt 0               ; array_underflow_gcc.c:28:17
	ldrsw	x9, [sp, #8]
	.loc	1 28 13                         ; array_underflow_gcc.c:28:13
	ldrsb	w8, [x8, x9]
	.loc	1 28 20                         ; array_underflow_gcc.c:28:20
	subs	w8, w8, #0
	cset	w8, ne
Ltmp8:
	.loc	1 28 13                         ; array_underflow_gcc.c:28:13
	tbnz	w8, #0, LBB1_4
	b	LBB1_3
LBB1_3:
Ltmp9:
	.loc	1 30 13 is_stmt 1               ; array_underflow_gcc.c:30:13
	b	LBB1_6
Ltmp10:
LBB1_4:                                 ;   in Loop: Header=BB1_1 Depth=1
	.loc	1 32 5                          ; array_underflow_gcc.c:32:5
	b	LBB1_5
Ltmp11:
LBB1_5:                                 ;   in Loop: Header=BB1_1 Depth=1
	.loc	1 25 28                         ; array_underflow_gcc.c:25:28
	ldr	w8, [sp, #8]
	add	w8, w8, #1
	str	w8, [sp, #8]
	.loc	1 25 5 is_stmt 0                ; array_underflow_gcc.c:25:5
	b	LBB1_1
Ltmp12:
LBB1_6:
	.loc	1 33 1 is_stmt 1                ; array_underflow_gcc.c:33:1
	add	sp, sp, #32
	ret
Ltmp13:
Lfunc_end1:
	.cfi_endproc
                                        ; -- End function
	.globl	_next_line                      ; -- Begin function next_line
	.p2align	2
_next_line:                             ; @next_line
Lfunc_begin2:
	.loc	1 38 0                          ; array_underflow_gcc.c:38:0
	.cfi_startproc
; %bb.0:
	sub	sp, sp, #48
	.cfi_def_cfa_offset 48
	stp	x29, x30, [sp, #32]             ; 16-byte Folded Spill
	add	x29, sp, #32
	.cfi_def_cfa w29, 16
	.cfi_offset w30, -8
	.cfi_offset w29, -16
	stur	x0, [x29, #-8]
	stur	w1, [x29, #-12]
	adrp	x8, ___stdinp@GOTPAGE
	ldr	x8, [x8, ___stdinp@GOTPAGEOFF]
Ltmp14:
	.loc	1 40 25 prologue_end            ; array_underflow_gcc.c:40:25
	ldr	x2, [x8]
	adrp	x0, _next_line.buffer@PAGE
	add	x0, x0, _next_line.buffer@PAGEOFF
	str	x0, [sp, #8]                    ; 8-byte Folded Spill
	mov	w1, #1024
	.loc	1 40 5 is_stmt 0                ; array_underflow_gcc.c:40:5
	bl	_fgets
	ldr	x0, [sp, #8]                    ; 8-byte Folded Reload
	.loc	1 41 16 is_stmt 1               ; array_underflow_gcc.c:41:16
	bl	_strlen
	ldr	x8, [sp, #8]                    ; 8-byte Folded Reload
	.loc	1 41 31 is_stmt 0               ; array_underflow_gcc.c:41:31
	subs	x9, x0, #1
                                        ; kill: def $w9 killed $w9 killed $x9
	.loc	1 41 9                          ; array_underflow_gcc.c:41:9
	str	w9, [sp, #16]
Ltmp15:
	.loc	1 42 16 is_stmt 1               ; array_underflow_gcc.c:42:16
	ldrsw	x9, [sp, #16]
	.loc	1 42 9 is_stmt 0                ; array_underflow_gcc.c:42:9
	ldrsb	w8, [x8, x9]
	.loc	1 42 22                         ; array_underflow_gcc.c:42:22
	subs	w8, w8, #10
	cset	w8, ne
Ltmp16:
	.loc	1 42 9                          ; array_underflow_gcc.c:42:9
	tbnz	w8, #0, LBB2_2
	b	LBB2_1
LBB2_1:
Ltmp17:
	.loc	1 44 16 is_stmt 1               ; array_underflow_gcc.c:44:16
	ldrsw	x9, [sp, #16]
	adrp	x8, _next_line.buffer@PAGE
	add	x8, x8, _next_line.buffer@PAGEOFF
	.loc	1 44 9 is_stmt 0                ; array_underflow_gcc.c:44:9
	add	x8, x8, x9
	.loc	1 44 22                         ; array_underflow_gcc.c:44:22
	strb	wzr, [x8]
	.loc	1 45 5 is_stmt 1                ; array_underflow_gcc.c:45:5
	b	LBB2_2
Ltmp18:
LBB2_2:
	.loc	1 46 16                         ; array_underflow_gcc.c:46:16
	ldur	x0, [x29, #-8]
	.loc	1 46 32 is_stmt 0               ; array_underflow_gcc.c:46:32
	ldur	w2, [x29, #-12]
	adrp	x1, _next_line.buffer@PAGE
	add	x1, x1, _next_line.buffer@PAGEOFF
	.loc	1 46 5                          ; array_underflow_gcc.c:46:5
	bl	_my_strncpy
	.loc	1 47 1 is_stmt 1                ; array_underflow_gcc.c:47:1
	ldp	x29, x30, [sp, #32]             ; 16-byte Folded Reload
	add	sp, sp, #48
	ret
Ltmp19:
Lfunc_end2:
	.cfi_endproc
                                        ; -- End function
	.globl	_edit_name                      ; -- Begin function edit_name
	.p2align	2
_edit_name:                             ; @edit_name
Lfunc_begin3:
	.loc	1 50 0                          ; array_underflow_gcc.c:50:0
	.cfi_startproc
; %bb.0:
	sub	sp, sp, #32
	.cfi_def_cfa_offset 32
	stp	x29, x30, [sp, #16]             ; 16-byte Folded Spill
	add	x29, sp, #16
	.cfi_def_cfa w29, 16
	.cfi_offset w30, -8
	.cfi_offset w29, -16
	str	x0, [sp, #8]
	adrp	x0, l_.str.1@PAGE
	add	x0, x0, l_.str.1@PAGEOFF
Ltmp20:
	.loc	1 51 5 prologue_end             ; array_underflow_gcc.c:51:5
	bl	_printf
	.loc	1 52 15                         ; array_underflow_gcc.c:52:15
	ldr	x0, [sp, #8]
	mov	w1, #32
	.loc	1 52 5 is_stmt 0                ; array_underflow_gcc.c:52:5
	bl	_next_line
	.loc	1 53 1 is_stmt 1                ; array_underflow_gcc.c:53:1
	ldp	x29, x30, [sp, #16]             ; 16-byte Folded Reload
	add	sp, sp, #32
	ret
Ltmp21:
Lfunc_end3:
	.cfi_endproc
                                        ; -- End function
	.globl	_edit_title                     ; -- Begin function edit_title
	.p2align	2
_edit_title:                            ; @edit_title
Lfunc_begin4:
	.loc	1 56 0                          ; array_underflow_gcc.c:56:0
	.cfi_startproc
; %bb.0:
	sub	sp, sp, #32
	.cfi_def_cfa_offset 32
	stp	x29, x30, [sp, #16]             ; 16-byte Folded Spill
	add	x29, sp, #16
	.cfi_def_cfa w29, 16
	.cfi_offset w30, -8
	.cfi_offset w29, -16
	str	x0, [sp, #8]
	adrp	x0, l_.str.2@PAGE
	add	x0, x0, l_.str.2@PAGEOFF
Ltmp22:
	.loc	1 57 5 prologue_end             ; array_underflow_gcc.c:57:5
	bl	_printf
	.loc	1 58 15                         ; array_underflow_gcc.c:58:15
	ldr	x8, [sp, #8]
	.loc	1 58 20 is_stmt 0               ; array_underflow_gcc.c:58:20
	add	x0, x8, #36
	mov	w1, #32
	.loc	1 58 5                          ; array_underflow_gcc.c:58:5
	bl	_next_line
	.loc	1 59 1 is_stmt 1                ; array_underflow_gcc.c:59:1
	ldp	x29, x30, [sp, #16]             ; 16-byte Folded Reload
	add	sp, sp, #32
	ret
Ltmp23:
Lfunc_end4:
	.cfi_endproc
                                        ; -- End function
	.globl	_edit_salary                    ; -- Begin function edit_salary
	.p2align	2
_edit_salary:                           ; @edit_salary
Lfunc_begin5:
	.loc	1 62 0                          ; array_underflow_gcc.c:62:0
	.cfi_startproc
; %bb.0:
	sub	sp, sp, #32
	.cfi_def_cfa_offset 32
	stp	x29, x30, [sp, #16]             ; 16-byte Folded Spill
	add	x29, sp, #16
	.cfi_def_cfa w29, 16
	.cfi_offset w30, -8
	.cfi_offset w29, -16
	str	x0, [sp, #8]
	adrp	x0, l_.str.3@PAGE
	add	x0, x0, l_.str.3@PAGEOFF
Ltmp24:
	.loc	1 63 5 prologue_end             ; array_underflow_gcc.c:63:5
	bl	_printf
	.loc	1 64 18                         ; array_underflow_gcc.c:64:18
	ldr	x8, [sp, #8]
	.loc	1 64 23 is_stmt 0               ; array_underflow_gcc.c:64:23
	add	x8, x8, #32
	.loc	1 64 5                          ; array_underflow_gcc.c:64:5
	mov	x9, sp
	str	x8, [x9]
	adrp	x0, l_.str@PAGE
	add	x0, x0, l_.str@PAGEOFF
	bl	_scanf
	.loc	1 65 1 is_stmt 1                ; array_underflow_gcc.c:65:1
	ldp	x29, x30, [sp, #16]             ; 16-byte Folded Reload
	add	sp, sp, #32
	ret
Ltmp25:
Lfunc_end5:
	.cfi_endproc
                                        ; -- End function
	.globl	_edit_employees                 ; -- Begin function edit_employees
	.p2align	2
_edit_employees:                        ; @edit_employees
Lfunc_begin6:
	.loc	1 68 0                          ; array_underflow_gcc.c:68:0
	.cfi_startproc
; %bb.0:
	sub	sp, sp, #80
	.cfi_def_cfa_offset 80
	stp	x29, x30, [sp, #64]             ; 16-byte Folded Spill
	add	x29, sp, #64
	.cfi_def_cfa w29, 16
	.cfi_offset w30, -8
	.cfi_offset w29, -16
	stur	w0, [x29, #-4]
	stur	w1, [x29, #-8]
	stur	x2, [x29, #-16]
	mov	w8, #-3
Ltmp26:
	.loc	1 71 9 prologue_end             ; array_underflow_gcc.c:71:9
	stur	w8, [x29, #-20]
                                        ; kill: def $x8 killed $xzr
	.loc	1 72 15                         ; array_underflow_gcc.c:72:15
	str	xzr, [sp, #32]
	mov	w8, #-2
	.loc	1 73 9                          ; array_underflow_gcc.c:73:9
	str	w8, [sp, #28]
	mov	w8, #-1
	.loc	1 74 9                          ; array_underflow_gcc.c:74:9
	str	w8, [sp, #24]
	.loc	1 75 24                         ; array_underflow_gcc.c:75:24
	ldur	w8, [x29, #-4]
	subs	w8, w8, #0
	cset	w8, eq
	mov	w9, #0
	str	w9, [sp, #20]                   ; 4-byte Folded Spill
	.loc	1 75 40 is_stmt 0               ; array_underflow_gcc.c:75:40
	tbnz	w8, #0, LBB6_2
	b	LBB6_1
LBB6_1:
	.loc	1 75 43                         ; array_underflow_gcc.c:75:43
	ldur	w8, [x29, #-8]
	.loc	1 75 40                         ; array_underflow_gcc.c:75:40
	subs	w8, w8, #0
	cset	w8, ne
	str	w8, [sp, #20]                   ; 4-byte Folded Spill
	b	LBB6_2
LBB6_2:
	.loc	1 0 40                          ; array_underflow_gcc.c:0:40
	ldr	w8, [sp, #20]                   ; 4-byte Folded Reload
	.loc	1 75 40                         ; array_underflow_gcc.c:75:40
	and	w8, w8, #0x1
	.loc	1 75 22                         ; array_underflow_gcc.c:75:22
	str	w8, [sp, #28]
	adrp	x0, l_.str.4@PAGE
	add	x0, x0, l_.str.4@PAGEOFF
	.loc	1 77 5 is_stmt 1                ; array_underflow_gcc.c:77:5
	bl	_printf
	.loc	1 78 15                         ; array_underflow_gcc.c:78:15
	bl	_next_int
	.loc	1 78 13 is_stmt 0               ; array_underflow_gcc.c:78:13
	stur	w0, [x29, #-20]
	.loc	1 79 5 is_stmt 1                ; array_underflow_gcc.c:79:5
	b	LBB6_3
LBB6_3:                                 ; =>This Loop Header: Depth=1
                                        ;     Child Loop BB6_5 Depth 2
	.loc	1 79 12 is_stmt 0               ; array_underflow_gcc.c:79:12
	ldur	w8, [x29, #-20]
	.loc	1 79 20                         ; array_underflow_gcc.c:79:20
	subs	w8, w8, #999
	cset	w8, eq
	.loc	1 79 5                          ; array_underflow_gcc.c:79:5
	tbnz	w8, #0, LBB6_20
	b	LBB6_4
LBB6_4:                                 ;   in Loop: Header=BB6_3 Depth=1
Ltmp27:
	.loc	1 81 16 is_stmt 1               ; array_underflow_gcc.c:81:16
	ldur	x8, [x29, #-16]
	.loc	1 81 26 is_stmt 0               ; array_underflow_gcc.c:81:26
	ldursw	x9, [x29, #-20]
	mov	x10, #68
	.loc	1 81 16                         ; array_underflow_gcc.c:81:16
	mul	x9, x9, x10
	add	x8, x8, x9
	.loc	1 81 13                         ; array_underflow_gcc.c:81:13
	str	x8, [sp, #32]
	adrp	x0, l_.str.5@PAGE
	add	x0, x0, l_.str.5@PAGEOFF
	.loc	1 83 9 is_stmt 1                ; array_underflow_gcc.c:83:9
	bl	_printf
	.loc	1 84 35                         ; array_underflow_gcc.c:84:35
	ldr	x8, [sp, #32]
	.loc	1 84 9 is_stmt 0                ; array_underflow_gcc.c:84:9
	mov	x9, sp
	str	x8, [x9]
	adrp	x0, l_.str.6@PAGE
	add	x0, x0, l_.str.6@PAGEOFF
	bl	_printf
	.loc	1 85 35 is_stmt 1               ; array_underflow_gcc.c:85:35
	ldr	x8, [sp, #32]
	.loc	1 85 40 is_stmt 0               ; array_underflow_gcc.c:85:40
	add	x8, x8, #36
	.loc	1 85 9                          ; array_underflow_gcc.c:85:9
	mov	x9, sp
	str	x8, [x9]
	adrp	x0, l_.str.7@PAGE
	add	x0, x0, l_.str.7@PAGEOFF
	bl	_printf
	.loc	1 86 35 is_stmt 1               ; array_underflow_gcc.c:86:35
	ldr	x8, [sp, #32]
	.loc	1 86 40 is_stmt 0               ; array_underflow_gcc.c:86:40
	ldr	w9, [x8, #32]
                                        ; implicit-def: $x8
	mov	x8, x9
	.loc	1 86 9                          ; array_underflow_gcc.c:86:9
	mov	x9, sp
	str	x8, [x9]
	adrp	x0, l_.str.8@PAGE
	add	x0, x0, l_.str.8@PAGEOFF
	bl	_printf
	.loc	1 101 9 is_stmt 1               ; array_underflow_gcc.c:101:9
	b	LBB6_5
LBB6_5:                                 ;   Parent Loop BB6_3 Depth=1
                                        ; =>  This Inner Loop Header: Depth=2
	.loc	1 0 9 is_stmt 0                 ; array_underflow_gcc.c:0:9
	adrp	x0, l_.str.9@PAGE
	add	x0, x0, l_.str.9@PAGEOFF
Ltmp28:
	.loc	1 103 13 is_stmt 1              ; array_underflow_gcc.c:103:13
	bl	_printf
	adrp	x0, l_.str.10@PAGE
	add	x0, x0, l_.str.10@PAGEOFF
	.loc	1 104 13                        ; array_underflow_gcc.c:104:13
	bl	_printf
	adrp	x0, l_.str.11@PAGE
	add	x0, x0, l_.str.11@PAGEOFF
	.loc	1 105 13                        ; array_underflow_gcc.c:105:13
	bl	_printf
Ltmp29:
	.loc	1 106 17                        ; array_underflow_gcc.c:106:17
	ldr	w8, [sp, #28]
	subs	w8, w8, #0
	cset	w8, eq
Ltmp30:
	.loc	1 106 17 is_stmt 0              ; array_underflow_gcc.c:106:17
	tbnz	w8, #0, LBB6_7
	b	LBB6_6
LBB6_6:                                 ;   in Loop: Header=BB6_5 Depth=2
	.loc	1 0 17                          ; array_underflow_gcc.c:0:17
	adrp	x0, l_.str.12@PAGE
	add	x0, x0, l_.str.12@PAGEOFF
Ltmp31:
	.loc	1 108 17 is_stmt 1              ; array_underflow_gcc.c:108:17
	bl	_printf
	.loc	1 109 13                        ; array_underflow_gcc.c:109:13
	b	LBB6_7
Ltmp32:
LBB6_7:                                 ;   in Loop: Header=BB6_5 Depth=2
	.loc	1 110 22                        ; array_underflow_gcc.c:110:22
	bl	_next_int
	.loc	1 110 20 is_stmt 0              ; array_underflow_gcc.c:110:20
	str	w0, [sp, #24]
Ltmp33:
	.loc	1 111 18 is_stmt 1              ; array_underflow_gcc.c:111:18
	ldr	w8, [sp, #24]
	.loc	1 111 25 is_stmt 0              ; array_underflow_gcc.c:111:25
	subs	w8, w8, #1
	cset	w8, lt
	.loc	1 111 30                        ; array_underflow_gcc.c:111:30
	tbnz	w8, #0, LBB6_9
	b	LBB6_8
LBB6_8:                                 ;   in Loop: Header=BB6_5 Depth=2
	.loc	1 111 33                        ; array_underflow_gcc.c:111:33
	ldr	w8, [sp, #24]
	.loc	1 111 40                        ; array_underflow_gcc.c:111:40
	subs	w8, w8, #2
	cset	w8, le
	.loc	1 111 46                        ; array_underflow_gcc.c:111:46
	tbnz	w8, #0, LBB6_11
	b	LBB6_9
LBB6_9:                                 ;   in Loop: Header=BB6_5 Depth=2
	.loc	1 111 50                        ; array_underflow_gcc.c:111:50
	ldr	w8, [sp, #24]
	.loc	1 111 57                        ; array_underflow_gcc.c:111:57
	subs	w8, w8, #3
	cset	w8, ne
	.loc	1 111 62                        ; array_underflow_gcc.c:111:62
	tbnz	w8, #0, LBB6_12
	b	LBB6_10
LBB6_10:                                ;   in Loop: Header=BB6_5 Depth=2
	.loc	1 111 65                        ; array_underflow_gcc.c:111:65
	ldr	w8, [sp, #28]
	subs	w8, w8, #0
	cset	w8, eq
Ltmp34:
	.loc	1 111 17                        ; array_underflow_gcc.c:111:17
	tbnz	w8, #0, LBB6_12
	b	LBB6_11
LBB6_11:                                ;   in Loop: Header=BB6_3 Depth=1
Ltmp35:
	.loc	1 113 17 is_stmt 1              ; array_underflow_gcc.c:113:17
	b	LBB6_13
Ltmp36:
LBB6_12:                                ;   in Loop: Header=BB6_5 Depth=2
	.loc	1 101 9                         ; array_underflow_gcc.c:101:9
	b	LBB6_5
LBB6_13:                                ;   in Loop: Header=BB6_3 Depth=1
	.loc	1 117 17                        ; array_underflow_gcc.c:117:17
	ldr	w8, [sp, #24]
	str	w8, [sp, #16]                   ; 4-byte Folded Spill
	.loc	1 117 9 is_stmt 0               ; array_underflow_gcc.c:117:9
	subs	w8, w8, #1
	cset	w8, eq
	tbnz	w8, #0, LBB6_16
	b	LBB6_14
LBB6_14:                                ;   in Loop: Header=BB6_3 Depth=1
	.loc	1 0 9                           ; array_underflow_gcc.c:0:9
	ldr	w8, [sp, #16]                   ; 4-byte Folded Reload
	.loc	1 117 9                         ; array_underflow_gcc.c:117:9
	subs	w8, w8, #2
	cset	w8, eq
	tbnz	w8, #0, LBB6_17
	b	LBB6_15
LBB6_15:                                ;   in Loop: Header=BB6_3 Depth=1
	.loc	1 0 9                           ; array_underflow_gcc.c:0:9
	ldr	w8, [sp, #16]                   ; 4-byte Folded Reload
	.loc	1 117 9                         ; array_underflow_gcc.c:117:9
	subs	w8, w8, #3
	cset	w8, eq
	tbnz	w8, #0, LBB6_18
	b	LBB6_19
LBB6_16:                                ;   in Loop: Header=BB6_3 Depth=1
Ltmp37:
	.loc	1 120 23 is_stmt 1              ; array_underflow_gcc.c:120:23
	ldr	x0, [sp, #32]
	.loc	1 120 13 is_stmt 0              ; array_underflow_gcc.c:120:13
	bl	_edit_name
	.loc	1 121 13 is_stmt 1              ; array_underflow_gcc.c:121:13
	b	LBB6_19
LBB6_17:                                ;   in Loop: Header=BB6_3 Depth=1
	.loc	1 123 24                        ; array_underflow_gcc.c:123:24
	ldr	x0, [sp, #32]
	.loc	1 123 13 is_stmt 0              ; array_underflow_gcc.c:123:13
	bl	_edit_title
	.loc	1 124 13 is_stmt 1              ; array_underflow_gcc.c:124:13
	b	LBB6_19
LBB6_18:                                ;   in Loop: Header=BB6_3 Depth=1
	.loc	1 126 25                        ; array_underflow_gcc.c:126:25
	ldr	x0, [sp, #32]
	.loc	1 126 13 is_stmt 0              ; array_underflow_gcc.c:126:13
	bl	_edit_salary
	.loc	1 127 13 is_stmt 1              ; array_underflow_gcc.c:127:13
	b	LBB6_19
Ltmp38:
LBB6_19:                                ;   in Loop: Header=BB6_3 Depth=1
	.loc	1 0 13 is_stmt 0                ; array_underflow_gcc.c:0:13
	adrp	x0, l_.str.13@PAGE
	add	x0, x0, l_.str.13@PAGEOFF
	.loc	1 130 9 is_stmt 1               ; array_underflow_gcc.c:130:9
	bl	_printf
	.loc	1 131 35                        ; array_underflow_gcc.c:131:35
	ldr	x8, [sp, #32]
	.loc	1 131 9 is_stmt 0               ; array_underflow_gcc.c:131:9
	mov	x9, sp
	str	x8, [x9]
	adrp	x0, l_.str.6@PAGE
	add	x0, x0, l_.str.6@PAGEOFF
	bl	_printf
	.loc	1 132 35 is_stmt 1              ; array_underflow_gcc.c:132:35
	ldr	x8, [sp, #32]
	.loc	1 132 40 is_stmt 0              ; array_underflow_gcc.c:132:40
	add	x8, x8, #36
	.loc	1 132 9                         ; array_underflow_gcc.c:132:9
	mov	x9, sp
	str	x8, [x9]
	adrp	x0, l_.str.7@PAGE
	add	x0, x0, l_.str.7@PAGEOFF
	bl	_printf
	.loc	1 133 35 is_stmt 1              ; array_underflow_gcc.c:133:35
	ldr	x8, [sp, #32]
	.loc	1 133 40 is_stmt 0              ; array_underflow_gcc.c:133:40
	ldr	w9, [x8, #32]
                                        ; implicit-def: $x8
	mov	x8, x9
	.loc	1 133 9                         ; array_underflow_gcc.c:133:9
	mov	x9, sp
	str	x8, [x9]
	adrp	x0, l_.str.8@PAGE
	add	x0, x0, l_.str.8@PAGEOFF
	bl	_printf
	.loc	1 135 48 is_stmt 1              ; array_underflow_gcc.c:135:48
	ldr	w8, [sp, #28]
                                        ; implicit-def: $x10
	mov	x10, x8
	.loc	1 135 66 is_stmt 0              ; array_underflow_gcc.c:135:66
	ldr	w9, [sp, #28]
                                        ; implicit-def: $x8
	mov	x8, x9
	.loc	1 135 9                         ; array_underflow_gcc.c:135:9
	mov	x9, sp
	str	x10, [x9]
	str	x8, [x9, #8]
	adrp	x0, l_.str.14@PAGE
	add	x0, x0, l_.str.14@PAGEOFF
	bl	_printf
	adrp	x0, l_.str.4@PAGE
	add	x0, x0, l_.str.4@PAGEOFF
	.loc	1 137 9 is_stmt 1               ; array_underflow_gcc.c:137:9
	bl	_printf
	.loc	1 138 19                        ; array_underflow_gcc.c:138:19
	bl	_next_int
	.loc	1 138 17 is_stmt 0              ; array_underflow_gcc.c:138:17
	stur	w0, [x29, #-20]
Ltmp39:
	.loc	1 79 5 is_stmt 1                ; array_underflow_gcc.c:79:5
	b	LBB6_3
LBB6_20:
	.loc	1 140 1                         ; array_underflow_gcc.c:140:1
	ldp	x29, x30, [sp, #64]             ; 16-byte Folded Reload
	add	sp, sp, #80
	ret
Ltmp40:
Lfunc_end6:
	.cfi_endproc
                                        ; -- End function
	.globl	_main                           ; -- Begin function main
	.p2align	2
_main:                                  ; @main
Lfunc_begin7:
	.loc	1 143 0                         ; array_underflow_gcc.c:143:0
	.cfi_startproc
; %bb.0:
	sub	sp, sp, #288
	.cfi_def_cfa_offset 288
	stp	x28, x27, [sp, #256]            ; 16-byte Folded Spill
	stp	x29, x30, [sp, #272]            ; 16-byte Folded Spill
	add	x29, sp, #272
	.cfi_def_cfa w29, 16
	.cfi_offset w30, -8
	.cfi_offset w29, -16
	.cfi_offset w27, -24
	.cfi_offset w28, -32
	adrp	x8, ___stack_chk_guard@GOTPAGE
	ldr	x8, [x8, ___stack_chk_guard@GOTPAGEOFF]
	ldr	x8, [x8]
	stur	x8, [x29, #-24]
	mov	w8, #0
	str	w8, [sp, #12]                   ; 4-byte Folded Spill
	str	wzr, [sp, #40]
	str	w0, [sp, #36]
	str	x1, [sp, #24]
	add	x0, sp, #44
	str	x0, [sp, #16]                   ; 8-byte Folded Spill
	adrp	x1, l___const.main.employees@PAGE
	add	x1, x1, l___const.main.employees@PAGEOFF
	mov	x2, #204
Ltmp41:
	.loc	1 145 12 prologue_end           ; array_underflow_gcc.c:145:12
	bl	_memcpy
	ldr	w1, [sp, #12]                   ; 4-byte Folded Reload
	ldr	x2, [sp, #16]                   ; 8-byte Folded Reload
	mov	w0, #1
	.loc	1 149 5                         ; array_underflow_gcc.c:149:5
	bl	_edit_employees
	.loc	1 151 5                         ; array_underflow_gcc.c:151:5
	ldur	x9, [x29, #-24]
	adrp	x8, ___stack_chk_guard@GOTPAGE
	ldr	x8, [x8, ___stack_chk_guard@GOTPAGEOFF]
	ldr	x8, [x8]
	subs	x8, x8, x9
	cset	w8, eq
	tbnz	w8, #0, LBB7_2
	b	LBB7_1
LBB7_1:
	bl	___stack_chk_fail
LBB7_2:
	.loc	1 0 5 is_stmt 0                 ; array_underflow_gcc.c:0:5
	mov	w0, #0
	.loc	1 151 5                         ; array_underflow_gcc.c:151:5
	ldp	x29, x30, [sp, #272]            ; 16-byte Folded Reload
	ldp	x28, x27, [sp, #256]            ; 16-byte Folded Reload
	add	sp, sp, #288
	ret
Ltmp42:
Lfunc_end7:
	.cfi_endproc
                                        ; -- End function
	.section	__TEXT,__cstring,cstring_literals
l_.str:                                 ; @.str
	.asciz	"%d"

.zerofill __DATA,__bss,_next_line.buffer,1024,0 ; @next_line.buffer
l_.str.1:                               ; @.str.1
	.asciz	"Enter the new name: "

l_.str.2:                               ; @.str.2
	.asciz	"Enter the new title: "

l_.str.3:                               ; @.str.3
	.asciz	"Enter the new salary: "

l_.str.4:                               ; @.str.4
	.asciz	"Enter number of employee to edit (or 999 to exit): "

l_.str.5:                               ; @.str.5
	.asciz	"Current employee: \n"

l_.str.6:                               ; @.str.6
	.asciz	"   Name:   %s\n"

l_.str.7:                               ; @.str.7
	.asciz	"   Title:  %s\n"

l_.str.8:                               ; @.str.8
	.asciz	"   Salary: %d\n"

l_.str.9:                               ; @.str.9
	.asciz	"What do you want to edit?\n"

l_.str.10:                              ; @.str.10
	.asciz	"   (1) Name\n"

l_.str.11:                              ; @.str.11
	.asciz	"   (2) Title\n"

l_.str.12:                              ; @.str.12
	.asciz	"   (3) Salary\n"

l_.str.13:                              ; @.str.13
	.asciz	"Updated employee: \n"

l_.str.14:                              ; @.str.14
	.asciz	"Can edit salary: %d (0x%x)\n"

	.section	__TEXT,__const
	.p2align	2, 0x0                          ; @__const.main.employees
l___const.main.employees:
	.asciz	"George Washington\000\000\000\000\000\000\000\000\000\000\000\000\000\000"
	.long	43615                           ; 0xaa5f
	.asciz	"First President\000\000\000\000\000\000\000\000\000\000\000\000\000\000\000\000"
	.asciz	"John Adams\000\000\000\000\000\000\000\000\000\000\000\000\000\000\000\000\000\000\000\000\000"
	.long	55134                           ; 0xd75e
	.asciz	"Second President\000\000\000\000\000\000\000\000\000\000\000\000\000\000\000"
	.asciz	"Thomas Jefferson\000\000\000\000\000\000\000\000\000\000\000\000\000\000\000"
	.long	61143                           ; 0xeed7
	.asciz	"Third President\000\000\000\000\000\000\000\000\000\000\000\000\000\000\000\000"
