	.file	"array_underflow_gcc.c"
	.text
.Ltext0:
	.file 0 "/home/kurmasz/DiveIntoSystems/dive_in_buffer_overflow/problem_2" "array_underflow_gcc.c"
	.globl	diff
	.bss
	.align 8
	.type	diff, @object
	.size	diff, 8
diff:
	.zero	8
	.section	.rodata
.LC0:
	.string	"%d"
	.text
	.globl	next_int
	.type	next_int, @function
next_int:
.LFB0:
	.file 1 "array_underflow_gcc.c"
	.loc 1 16 1
	.cfi_startproc
	endbr64
	pushq	%rbp
	.cfi_def_cfa_offset 16
	.cfi_offset 6, -16
	movq	%rsp, %rbp
	.cfi_def_cfa_register 6
	subq	$16, %rsp
	.loc 1 16 1
	movq	%fs:40, %rax
	movq	%rax, -8(%rbp)
	xorl	%eax, %eax
	.loc 1 18 5
	leaq	-12(%rbp), %rax
	movq	%rax, %rsi
	leaq	.LC0(%rip), %rax
	movq	%rax, %rdi
	movl	$0, %eax
	call	__isoc99_scanf@PLT
	.loc 1 19 11
	nop
.L2:
	.loc 1 19 12 discriminator 1
	call	getchar@PLT
	.loc 1 19 22 discriminator 1
	cmpl	$10, %eax
	jne	.L2
	.loc 1 21 12
	movl	-12(%rbp), %eax
	.loc 1 22 1
	movq	-8(%rbp), %rdx
	subq	%fs:40, %rdx
	je	.L4
	call	__stack_chk_fail@PLT
.L4:
	leave
	.cfi_def_cfa 7, 8
	ret
	.cfi_endproc
.LFE0:
	.size	next_int, .-next_int
	.globl	my_strncpy
	.type	my_strncpy, @function
my_strncpy:
.LFB1:
	.loc 1 25 1
	.cfi_startproc
	endbr64
	pushq	%rbp
	.cfi_def_cfa_offset 16
	.cfi_offset 6, -16
	movq	%rsp, %rbp
	.cfi_def_cfa_register 6
	movq	%rdi, -24(%rbp)
	movq	%rsi, -32(%rbp)
	movl	%edx, -36(%rbp)
.LBB2:
	.loc 1 27 14
	movl	$0, -4(%rbp)
	.loc 1 27 5
	jmp	.L6
.L9:
	.loc 1 29 22
	movl	-4(%rbp), %eax
	movslq	%eax, %rdx
	movq	-32(%rbp), %rax
	addq	%rdx, %rax
	.loc 1 29 13
	movl	-4(%rbp), %edx
	movslq	%edx, %rcx
	movq	-24(%rbp), %rdx
	addq	%rcx, %rdx
	.loc 1 29 22
	movzbl	(%rax), %eax
	.loc 1 29 17
	movb	%al, (%rdx)
	.loc 1 30 16
	movl	-4(%rbp), %eax
	movslq	%eax, %rdx
	movq	-32(%rbp), %rax
	addq	%rdx, %rax
	movzbl	(%rax), %eax
	.loc 1 30 12
	testb	%al, %al
	je	.L10
	.loc 1 27 28 discriminator 2
	addl	$1, -4(%rbp)
.L6:
	.loc 1 27 23 discriminator 1
	movl	-4(%rbp), %eax
	cmpl	-36(%rbp), %eax
	jl	.L9
.LBE2:
	.loc 1 35 1
	jmp	.L11
.L10:
.LBB3:
	.loc 1 32 13
	nop
.L11:
.LBE3:
	.loc 1 35 1
	nop
	popq	%rbp
	.cfi_def_cfa 7, 8
	ret
	.cfi_endproc
.LFE1:
	.size	my_strncpy, .-my_strncpy
	.globl	next_line
	.type	next_line, @function
next_line:
.LFB2:
	.loc 1 40 1
	.cfi_startproc
	endbr64
	pushq	%rbp
	.cfi_def_cfa_offset 16
	.cfi_offset 6, -16
	movq	%rsp, %rbp
	.cfi_def_cfa_register 6
	subq	$32, %rsp
	movq	%rdi, -24(%rbp)
	movl	%esi, -28(%rbp)
	.loc 1 42 5
	movq	stdin(%rip), %rax
	movq	%rax, %rdx
	movl	$1024, %esi
	leaq	buffer.0(%rip), %rax
	movq	%rax, %rdi
	call	fgets@PLT
	.loc 1 43 16
	leaq	buffer.0(%rip), %rax
	movq	%rax, %rdi
	call	strlen@PLT
	.loc 1 43 31
	subl	$1, %eax
	.loc 1 43 9
	movl	%eax, -4(%rbp)
	.loc 1 44 15
	movl	-4(%rbp), %eax
	cltq
	leaq	buffer.0(%rip), %rdx
	movzbl	(%rax,%rdx), %eax
	.loc 1 44 8
	cmpb	$10, %al
	jne	.L13
	.loc 1 46 22
	movl	-4(%rbp), %eax
	cltq
	leaq	buffer.0(%rip), %rdx
	movb	$0, (%rax,%rdx)
.L13:
	.loc 1 48 5
	movl	-28(%rbp), %edx
	movq	-24(%rbp), %rax
	leaq	buffer.0(%rip), %rcx
	movq	%rcx, %rsi
	movq	%rax, %rdi
	call	my_strncpy
	.loc 1 49 1
	nop
	leave
	.cfi_def_cfa 7, 8
	ret
	.cfi_endproc
.LFE2:
	.size	next_line, .-next_line
	.section	.rodata
.LC1:
	.string	"Enter the new name: "
	.text
	.globl	edit_name
	.type	edit_name, @function
edit_name:
.LFB3:
	.loc 1 52 1
	.cfi_startproc
	endbr64
	pushq	%rbp
	.cfi_def_cfa_offset 16
	.cfi_offset 6, -16
	movq	%rsp, %rbp
	.cfi_def_cfa_register 6
	subq	$16, %rsp
	movq	%rdi, -8(%rbp)
	.loc 1 53 5
	leaq	.LC1(%rip), %rax
	movq	%rax, %rdi
	movl	$0, %eax
	call	printf@PLT
	.loc 1 54 18
	movq	-8(%rbp), %rax
	.loc 1 54 5
	movl	$32, %esi
	movq	%rax, %rdi
	call	next_line
	.loc 1 55 1
	nop
	leave
	.cfi_def_cfa 7, 8
	ret
	.cfi_endproc
.LFE3:
	.size	edit_name, .-edit_name
	.section	.rodata
.LC2:
	.string	"Enter the new title: "
	.text
	.globl	edit_title
	.type	edit_title, @function
edit_title:
.LFB4:
	.loc 1 58 1
	.cfi_startproc
	endbr64
	pushq	%rbp
	.cfi_def_cfa_offset 16
	.cfi_offset 6, -16
	movq	%rsp, %rbp
	.cfi_def_cfa_register 6
	subq	$16, %rsp
	movq	%rdi, -8(%rbp)
	.loc 1 59 5
	leaq	.LC2(%rip), %rax
	movq	%rax, %rdi
	movl	$0, %eax
	call	printf@PLT
	.loc 1 60 18
	movq	-8(%rbp), %rax
	addq	$36, %rax
	.loc 1 60 5
	movl	$32, %esi
	movq	%rax, %rdi
	call	next_line
	.loc 1 61 1
	nop
	leave
	.cfi_def_cfa 7, 8
	ret
	.cfi_endproc
.LFE4:
	.size	edit_title, .-edit_title
	.section	.rodata
.LC3:
	.string	"Enter the new salary: "
	.text
	.globl	edit_salary
	.type	edit_salary, @function
edit_salary:
.LFB5:
	.loc 1 64 1
	.cfi_startproc
	endbr64
	pushq	%rbp
	.cfi_def_cfa_offset 16
	.cfi_offset 6, -16
	movq	%rsp, %rbp
	.cfi_def_cfa_register 6
	subq	$16, %rsp
	movq	%rdi, -8(%rbp)
	.loc 1 65 5
	leaq	.LC3(%rip), %rax
	movq	%rax, %rdi
	movl	$0, %eax
	call	printf@PLT
	.loc 1 66 5
	movq	-8(%rbp), %rax
	addq	$32, %rax
	movq	%rax, %rsi
	leaq	.LC0(%rip), %rax
	movq	%rax, %rdi
	movl	$0, %eax
	call	__isoc99_scanf@PLT
	.loc 1 67 1
	nop
	leave
	.cfi_def_cfa 7, 8
	ret
	.cfi_endproc
.LFE5:
	.size	edit_salary, .-edit_salary
	.section	.rodata
	.align 8
.LC4:
	.string	"Enter number of employee to edit (or 999 to exit): "
.LC5:
	.string	"Current employee: "
.LC6:
	.string	"   Name:   %s\n"
.LC7:
	.string	"   Title:  %s\n"
.LC8:
	.string	"   Salary: %d\n"
.LC9:
	.string	"   employee: %p\n"
.LC10:
	.string	"     target: %p  (%ld)\n"
.LC11:
	.string	"What do you want to edit?"
.LC12:
	.string	"   (1) Name"
.LC13:
	.string	"   (2) Title"
.LC14:
	.string	"   (3) Salary"
.LC15:
	.string	"Updated employee: "
.LC16:
	.string	"Can edit salary: %d (0x%x)\n"
	.text
	.globl	edit_employees
	.type	edit_employees, @function
edit_employees:
.LFB6:
	.loc 1 70 1
	.cfi_startproc
	endbr64
	pushq	%rbp
	.cfi_def_cfa_offset 16
	.cfi_offset 6, -16
	movq	%rsp, %rbp
	.cfi_def_cfa_register 6
	subq	$48, %rsp
	movl	%edi, -36(%rbp)
	movl	%esi, -40(%rbp)
	movq	%rdx, -48(%rbp)
	.loc 1 70 1
	movq	%fs:40, %rax
	movq	%rax, -8(%rbp)
	xorl	%eax, %eax
	.loc 1 73 9
	movl	$-3, -24(%rbp)
	.loc 1 74 15
	movq	$0, -16(%rbp)
	.loc 1 75 9
	movl	$-2, -28(%rbp)
	.loc 1 76 9
	movl	$-1, -20(%rbp)
	.loc 1 77 40
	cmpl	$0, -36(%rbp)
	je	.L18
	.loc 1 77 40 is_stmt 0 discriminator 1
	cmpl	$0, -40(%rbp)
	je	.L18
	.loc 1 77 40 discriminator 3
	movl	$1, %eax
	jmp	.L19
.L18:
	.loc 1 77 40 discriminator 4
	movl	$0, %eax
.L19:
	.loc 1 77 22 is_stmt 1 discriminator 6
	movl	%eax, -28(%rbp)
	.loc 1 80 5 discriminator 6
	leaq	.LC4(%rip), %rax
	movq	%rax, %rdi
	movl	$0, %eax
	call	printf@PLT
	.loc 1 81 15 discriminator 6
	movl	$0, %eax
	call	next_int
	movl	%eax, -24(%rbp)
	.loc 1 82 11 discriminator 6
	jmp	.L20
.L30:
	.loc 1 84 25
	movl	-24(%rbp), %eax
	movslq	%eax, %rdx
	movq	%rdx, %rax
	salq	$4, %rax
	addq	%rdx, %rax
	salq	$2, %rax
	movq	%rax, %rdx
	.loc 1 84 13
	movq	-48(%rbp), %rax
	addq	%rdx, %rax
	movq	%rax, -16(%rbp)
	.loc 1 86 9
	leaq	.LC5(%rip), %rax
	movq	%rax, %rdi
	call	puts@PLT
	.loc 1 87 38
	movq	-16(%rbp), %rax
	.loc 1 87 9
	movq	%rax, %rsi
	leaq	.LC6(%rip), %rax
	movq	%rax, %rdi
	movl	$0, %eax
	call	printf@PLT
	.loc 1 88 38
	movq	-16(%rbp), %rax
	addq	$36, %rax
	.loc 1 88 9
	movq	%rax, %rsi
	leaq	.LC7(%rip), %rax
	movq	%rax, %rdi
	movl	$0, %eax
	call	printf@PLT
	.loc 1 89 9
	movq	-16(%rbp), %rax
	movl	32(%rax), %eax
	movl	%eax, %esi
	leaq	.LC8(%rip), %rax
	movq	%rax, %rdi
	movl	$0, %eax
	call	printf@PLT
	.loc 1 96 9
	movq	-16(%rbp), %rax
	movq	%rax, %rsi
	leaq	.LC9(%rip), %rax
	movq	%rax, %rdi
	movl	$0, %eax
	call	printf@PLT
	.loc 1 97 2
	leaq	-28(%rbp), %rax
	subq	-16(%rbp), %rax
	movq	%rax, %rdx
	leaq	-28(%rbp), %rax
	movq	%rax, %rsi
	leaq	.LC10(%rip), %rax
	movq	%rax, %rdi
	movl	$0, %eax
	call	printf@PLT
.L25:
	.loc 1 102 13
	leaq	.LC11(%rip), %rax
	movq	%rax, %rdi
	call	puts@PLT
	.loc 1 103 13
	leaq	.LC12(%rip), %rax
	movq	%rax, %rdi
	call	puts@PLT
	.loc 1 104 13
	leaq	.LC13(%rip), %rax
	movq	%rax, %rdi
	call	puts@PLT
	.loc 1 105 17
	movl	-28(%rbp), %eax
	.loc 1 105 16
	testl	%eax, %eax
	je	.L21
	.loc 1 107 17
	leaq	.LC14(%rip), %rax
	movq	%rax, %rdi
	call	puts@PLT
.L21:
	.loc 1 109 22
	movl	$0, %eax
	call	next_int
	movl	%eax, -20(%rbp)
	.loc 1 110 16
	cmpl	$0, -20(%rbp)
	jle	.L22
	.loc 1 110 30 discriminator 1
	cmpl	$2, -20(%rbp)
	jle	.L23
.L22:
	.loc 1 110 46 discriminator 3
	cmpl	$3, -20(%rbp)
	jne	.L25
	.loc 1 110 62 discriminator 4
	movl	-28(%rbp), %eax
	testl	%eax, %eax
	jne	.L23
	.loc 1 102 13
	jmp	.L25
.L23:
	.loc 1 116 9
	cmpl	$3, -20(%rbp)
	je	.L26
	cmpl	$3, -20(%rbp)
	jg	.L27
	cmpl	$1, -20(%rbp)
	je	.L28
	cmpl	$2, -20(%rbp)
	je	.L29
	jmp	.L27
.L28:
	.loc 1 119 13
	movq	-16(%rbp), %rax
	movq	%rax, %rdi
	call	edit_name
	.loc 1 120 13
	jmp	.L27
.L29:
	.loc 1 122 13
	movq	-16(%rbp), %rax
	movq	%rax, %rdi
	call	edit_title
	.loc 1 123 13
	jmp	.L27
.L26:
	.loc 1 125 13
	movq	-16(%rbp), %rax
	movq	%rax, %rdi
	call	edit_salary
	.loc 1 126 13
	nop
.L27:
	.loc 1 129 9
	leaq	.LC15(%rip), %rax
	movq	%rax, %rdi
	call	puts@PLT
	.loc 1 130 38
	movq	-16(%rbp), %rax
	.loc 1 130 9
	movq	%rax, %rsi
	leaq	.LC6(%rip), %rax
	movq	%rax, %rdi
	movl	$0, %eax
	call	printf@PLT
	.loc 1 131 38
	movq	-16(%rbp), %rax
	addq	$36, %rax
	.loc 1 131 9
	movq	%rax, %rsi
	leaq	.LC7(%rip), %rax
	movq	%rax, %rdi
	movl	$0, %eax
	call	printf@PLT
	.loc 1 132 9
	movq	-16(%rbp), %rax
	movl	32(%rax), %eax
	movl	%eax, %esi
	leaq	.LC8(%rip), %rax
	movq	%rax, %rdi
	movl	$0, %eax
	call	printf@PLT
	.loc 1 134 9
	movl	-28(%rbp), %edx
	movl	-28(%rbp), %eax
	movl	%eax, %esi
	leaq	.LC16(%rip), %rax
	movq	%rax, %rdi
	movl	$0, %eax
	call	printf@PLT
	.loc 1 136 9
	leaq	.LC4(%rip), %rax
	movq	%rax, %rdi
	movl	$0, %eax
	call	printf@PLT
	.loc 1 137 19
	movl	$0, %eax
	call	next_int
	movl	%eax, -24(%rbp)
.L20:
	.loc 1 82 20
	cmpl	$999, -24(%rbp)
	jne	.L30
	.loc 1 139 1
	nop
	movq	-8(%rbp), %rax
	subq	%fs:40, %rax
	je	.L31
	call	__stack_chk_fail@PLT
.L31:
	leave
	.cfi_def_cfa 7, 8
	ret
	.cfi_endproc
.LFE6:
	.size	edit_employees, .-edit_employees
	.globl	main
	.type	main, @function
main:
.LFB7:
	.loc 1 142 1
	.cfi_startproc
	endbr64
	pushq	%rbp
	.cfi_def_cfa_offset 16
	.cfi_offset 6, -16
	movq	%rsp, %rbp
	.cfi_def_cfa_register 6
	subq	$240, %rsp
	movl	%edi, -228(%rbp)
	movq	%rsi, -240(%rbp)
	.loc 1 142 1
	movq	%fs:40, %rax
	movq	%rax, -8(%rbp)
	xorl	%eax, %eax
	.loc 1 144 12
	movabsq	$6278129375530411335, %rax
	movabsq	$8031157759420953441, %rdx
	movq	%rax, -224(%rbp)
	movq	%rdx, -216(%rbp)
	movq	$110, -208(%rbp)
	movq	$0, -200(%rbp)
	movl	$43615, -192(%rbp)
	movabsq	$8237119402985810246, %rax
	movabsq	$32772479053820773, %rdx
	movq	%rax, -188(%rbp)
	movq	%rdx, -180(%rbp)
	movq	$0, -172(%rbp)
	movq	$0, -164(%rbp)
	movabsq	$7017805726897172298, %rax
	movl	$29549, %edx
	movq	%rax, -156(%rbp)
	movq	%rdx, -148(%rbp)
	movq	$0, -140(%rbp)
	movq	$0, -132(%rbp)
	movl	$55134, -124(%rbp)
	movabsq	$5773725147766941011, %rax
	movabsq	$8389754637778118002, %rdx
	movq	%rax, -120(%rbp)
	movq	%rdx, -112(%rbp)
	movq	$0, -104(%rbp)
	movq	$0, -96(%rbp)
	movabsq	$5341396020346447956, %rax
	movabsq	$7957706001751631461, %rdx
	movq	%rax, -88(%rbp)
	movq	%rdx, -80(%rbp)
	movq	$0, -72(%rbp)
	movq	$0, -64(%rbp)
	movl	$61143, -56(%rbp)
	movabsq	$8237119334248966228, %rax
	movabsq	$32772479053820773, %rdx
	movq	%rax, -52(%rbp)
	movq	%rdx, -44(%rbp)
	movq	$0, -36(%rbp)
	movq	$0, -28(%rbp)
	.loc 1 148 5
	leaq	-224(%rbp), %rax
	movq	%rax, %rdx
	movl	$0, %esi
	movl	$1, %edi
	call	edit_employees
	.loc 1 150 12
	movl	$0, %eax
	.loc 1 151 1
	movq	-8(%rbp), %rdx
	subq	%fs:40, %rdx
	je	.L34
	call	__stack_chk_fail@PLT
.L34:
	leave
	.cfi_def_cfa 7, 8
	ret
	.cfi_endproc
.LFE7:
	.size	main, .-main
	.local	buffer.0
	.comm	buffer.0,1024,32
.Letext0:
	.file 2 "/usr/lib/gcc/x86_64-linux-gnu/11/include/stddef.h"
	.file 3 "/usr/include/x86_64-linux-gnu/bits/types.h"
	.file 4 "/usr/include/x86_64-linux-gnu/bits/types/struct_FILE.h"
	.file 5 "/usr/include/x86_64-linux-gnu/bits/types/FILE.h"
	.file 6 "/usr/include/stdio.h"
	.file 7 "/usr/include/string.h"
	.section	.note.GNU-stack,"",@progbits
	.section	.note.gnu.property,"a"
	.align 8
	.long	1f - 0f
	.long	4f - 1f
	.long	5
0:
	.string	"GNU"
1:
	.align 8
	.long	0xc0000002
	.long	3f - 2f
2:
	.long	0x3
3:
	.align 8
4:
