# Compiled on a mac with an Intel processor
# gcc -Wall -g -S edit_employee.c
#
# gcc --version
# Apple clang version 14.0.3 (clang-1403.0.22.14.1)
# Target: x86_64-apple-darwin22.6.0
# Thread model: posix
# InstalledDir: /Library/Developer/CommandLineTools/usr/bin

	.section	__TEXT,__text,regular,pure_instructions
	.build_version macos, 13, 0	sdk_version 13, 3
	.file	1 "/Users/kurmasz/Documents/DiveIntoSystems/dis_buffer/problem_2" "edit_employee.c"
	.globl	_next_int                       ## -- Begin function next_int
	.p2align	4, 0x90
_next_int:                              ## @next_int
Lfunc_begin0:
	.loc	1 14 0                          ## edit_employee.c:14:0
	.cfi_startproc
## %bb.0:
	pushq	%rbp
	.cfi_def_cfa_offset 16
	.cfi_offset %rbp, -16
	movq	%rsp, %rbp
	.cfi_def_cfa_register %rbp
	subq	$16, %rsp
Ltmp0:
	.loc	1 16 5 prologue_end             ## edit_employee.c:16:5
	leaq	L_.str(%rip), %rdi
	leaq	-4(%rbp), %rsi
	movb	$0, %al
	callq	_scanf
LBB0_1:                                 ## =>This Inner Loop Header: Depth=1
	.loc	1 17 12                         ## edit_employee.c:17:12
	callq	_getchar
	.loc	1 17 22 is_stmt 0               ## edit_employee.c:17:22
	cmpl	$10, %eax
	.loc	1 17 5                          ## edit_employee.c:17:5
	je	LBB0_3
## %bb.2:                               ##   in Loop: Header=BB0_1 Depth=1
	jmp	LBB0_1
LBB0_3:
	.loc	1 19 12 is_stmt 1               ## edit_employee.c:19:12
	movl	-4(%rbp), %eax
	.loc	1 19 5 is_stmt 0                ## edit_employee.c:19:5
	addq	$16, %rsp
	popq	%rbp
	retq
Ltmp1:
Lfunc_end0:
	.cfi_endproc
                                        ## -- End function
	.globl	_my_strncpy                     ## -- Begin function my_strncpy
	.p2align	4, 0x90
_my_strncpy:                            ## @my_strncpy
Lfunc_begin1:
	.loc	1 22 0 is_stmt 1                ## edit_employee.c:22:0
	.cfi_startproc
## %bb.0:
	pushq	%rbp
	.cfi_def_cfa_offset 16
	.cfi_offset %rbp, -16
	movq	%rsp, %rbp
	.cfi_def_cfa_register %rbp
	movq	%rdi, -8(%rbp)
	movq	%rsi, -16(%rbp)
	movl	%edx, -20(%rbp)
Ltmp2:
	.loc	1 24 14 prologue_end            ## edit_employee.c:24:14
	movl	$0, -24(%rbp)
LBB1_1:                                 ## =>This Inner Loop Header: Depth=1
Ltmp3:
	.loc	1 24 21 is_stmt 0               ## edit_employee.c:24:21
	movl	-24(%rbp), %eax
	.loc	1 24 23                         ## edit_employee.c:24:23
	cmpl	-20(%rbp), %eax
Ltmp4:
	.loc	1 24 5                          ## edit_employee.c:24:5
	jge	LBB1_6
## %bb.2:                               ##   in Loop: Header=BB1_1 Depth=1
Ltmp5:
	.loc	1 25 19 is_stmt 1               ## edit_employee.c:25:19
	movq	-16(%rbp), %rax
	movslq	-24(%rbp), %rcx
	movb	(%rax,%rcx), %dl
	.loc	1 25 9 is_stmt 0                ## edit_employee.c:25:9
	movq	-8(%rbp), %rax
	movslq	-24(%rbp), %rcx
	.loc	1 25 17                         ## edit_employee.c:25:17
	movb	%dl, (%rax,%rcx)
Ltmp6:
	.loc	1 26 13 is_stmt 1               ## edit_employee.c:26:13
	movq	-16(%rbp), %rax
	movslq	-24(%rbp), %rcx
	movsbl	(%rax,%rcx), %eax
	.loc	1 26 20 is_stmt 0               ## edit_employee.c:26:20
	cmpl	$0, %eax
Ltmp7:
	.loc	1 26 13                         ## edit_employee.c:26:13
	jne	LBB1_4
## %bb.3:
Ltmp8:
	.loc	1 27 13 is_stmt 1               ## edit_employee.c:27:13
	jmp	LBB1_6
Ltmp9:
LBB1_4:                                 ##   in Loop: Header=BB1_1 Depth=1
	.loc	1 29 5                          ## edit_employee.c:29:5
	jmp	LBB1_5
Ltmp10:
LBB1_5:                                 ##   in Loop: Header=BB1_1 Depth=1
	.loc	1 24 28                         ## edit_employee.c:24:28
	movl	-24(%rbp), %eax
	addl	$1, %eax
	movl	%eax, -24(%rbp)
	.loc	1 24 5 is_stmt 0                ## edit_employee.c:24:5
	jmp	LBB1_1
Ltmp11:
LBB1_6:
	.loc	1 30 1 is_stmt 1                ## edit_employee.c:30:1
	popq	%rbp
	retq
Ltmp12:
Lfunc_end1:
	.cfi_endproc
                                        ## -- End function
	.globl	_next_line                      ## -- Begin function next_line
	.p2align	4, 0x90
_next_line:                             ## @next_line
Lfunc_begin2:
	.loc	1 35 0                          ## edit_employee.c:35:0
	.cfi_startproc
## %bb.0:
	pushq	%rbp
	.cfi_def_cfa_offset 16
	.cfi_offset %rbp, -16
	movq	%rsp, %rbp
	.cfi_def_cfa_register %rbp
	subq	$16, %rsp
	movq	%rdi, -8(%rbp)
	movl	%esi, -12(%rbp)
Ltmp13:
	.loc	1 37 25 prologue_end            ## edit_employee.c:37:25
	movq	___stdinp@GOTPCREL(%rip), %rax
	movq	(%rax), %rdx
	.loc	1 37 5 is_stmt 0                ## edit_employee.c:37:5
	leaq	_next_line.buffer(%rip), %rdi
	movl	$1024, %esi                     ## imm = 0x400
	callq	_fgets
	.loc	1 38 16 is_stmt 1               ## edit_employee.c:38:16
	leaq	_next_line.buffer(%rip), %rdi
	callq	_strlen
	.loc	1 38 31 is_stmt 0               ## edit_employee.c:38:31
	subq	$1, %rax
                                        ## kill: def $eax killed $eax killed $rax
	.loc	1 38 9                          ## edit_employee.c:38:9
	movl	%eax, -16(%rbp)
Ltmp14:
	.loc	1 39 9 is_stmt 1                ## edit_employee.c:39:9
	movslq	-16(%rbp), %rcx
	leaq	_next_line.buffer(%rip), %rax
	movsbl	(%rax,%rcx), %eax
	.loc	1 39 22 is_stmt 0               ## edit_employee.c:39:22
	cmpl	$10, %eax
Ltmp15:
	.loc	1 39 9                          ## edit_employee.c:39:9
	jne	LBB2_2
## %bb.1:
Ltmp16:
	.loc	1 41 9 is_stmt 1                ## edit_employee.c:41:9
	movslq	-16(%rbp), %rcx
	.loc	1 41 22 is_stmt 0               ## edit_employee.c:41:22
	leaq	_next_line.buffer(%rip), %rax
	movb	$0, (%rax,%rcx)
Ltmp17:
LBB2_2:
	.loc	1 43 16 is_stmt 1               ## edit_employee.c:43:16
	movq	-8(%rbp), %rdi
	.loc	1 43 32 is_stmt 0               ## edit_employee.c:43:32
	movl	-12(%rbp), %edx
	.loc	1 43 5                          ## edit_employee.c:43:5
	leaq	_next_line.buffer(%rip), %rsi
	callq	_my_strncpy
	.loc	1 44 1 is_stmt 1                ## edit_employee.c:44:1
	addq	$16, %rsp
	popq	%rbp
	retq
Ltmp18:
Lfunc_end2:
	.cfi_endproc
                                        ## -- End function
	.globl	_edit_name                      ## -- Begin function edit_name
	.p2align	4, 0x90
_edit_name:                             ## @edit_name
Lfunc_begin3:
	.loc	1 47 0                          ## edit_employee.c:47:0
	.cfi_startproc
## %bb.0:
	pushq	%rbp
	.cfi_def_cfa_offset 16
	.cfi_offset %rbp, -16
	movq	%rsp, %rbp
	.cfi_def_cfa_register %rbp
	subq	$16, %rsp
	movq	%rdi, -8(%rbp)
Ltmp19:
	.loc	1 48 5 prologue_end             ## edit_employee.c:48:5
	leaq	L_.str.1(%rip), %rdi
	movb	$0, %al
	callq	_printf
	.loc	1 49 15                         ## edit_employee.c:49:15
	movq	-8(%rbp), %rdi
	.loc	1 49 5 is_stmt 0                ## edit_employee.c:49:5
	movl	$32, %esi
	callq	_next_line
	.loc	1 50 1 is_stmt 1                ## edit_employee.c:50:1
	addq	$16, %rsp
	popq	%rbp
	retq
Ltmp20:
Lfunc_end3:
	.cfi_endproc
                                        ## -- End function
	.globl	_edit_title                     ## -- Begin function edit_title
	.p2align	4, 0x90
_edit_title:                            ## @edit_title
Lfunc_begin4:
	.loc	1 53 0                          ## edit_employee.c:53:0
	.cfi_startproc
## %bb.0:
	pushq	%rbp
	.cfi_def_cfa_offset 16
	.cfi_offset %rbp, -16
	movq	%rsp, %rbp
	.cfi_def_cfa_register %rbp
	subq	$16, %rsp
	movq	%rdi, -8(%rbp)
Ltmp21:
	.loc	1 54 5 prologue_end             ## edit_employee.c:54:5
	leaq	L_.str.2(%rip), %rdi
	movb	$0, %al
	callq	_printf
	.loc	1 55 15                         ## edit_employee.c:55:15
	movq	-8(%rbp), %rdi
	.loc	1 55 20 is_stmt 0               ## edit_employee.c:55:20
	addq	$36, %rdi
	.loc	1 55 5                          ## edit_employee.c:55:5
	movl	$32, %esi
	callq	_next_line
	.loc	1 56 1 is_stmt 1                ## edit_employee.c:56:1
	addq	$16, %rsp
	popq	%rbp
	retq
Ltmp22:
Lfunc_end4:
	.cfi_endproc
                                        ## -- End function
	.globl	_edit_salary                    ## -- Begin function edit_salary
	.p2align	4, 0x90
_edit_salary:                           ## @edit_salary
Lfunc_begin5:
	.loc	1 59 0                          ## edit_employee.c:59:0
	.cfi_startproc
## %bb.0:
	pushq	%rbp
	.cfi_def_cfa_offset 16
	.cfi_offset %rbp, -16
	movq	%rsp, %rbp
	.cfi_def_cfa_register %rbp
	subq	$16, %rsp
	movq	%rdi, -8(%rbp)
Ltmp23:
	.loc	1 60 5 prologue_end             ## edit_employee.c:60:5
	leaq	L_.str.3(%rip), %rdi
	movb	$0, %al
	callq	_printf
	.loc	1 61 18                         ## edit_employee.c:61:18
	movq	-8(%rbp), %rsi
	.loc	1 61 23 is_stmt 0               ## edit_employee.c:61:23
	addq	$32, %rsi
	.loc	1 61 5                          ## edit_employee.c:61:5
	leaq	L_.str(%rip), %rdi
	movb	$0, %al
	callq	_scanf
	.loc	1 62 1 is_stmt 1                ## edit_employee.c:62:1
	addq	$16, %rsp
	popq	%rbp
	retq
Ltmp24:
Lfunc_end5:
	.cfi_endproc
                                        ## -- End function
	.globl	_edit_employees                 ## -- Begin function edit_employees
	.p2align	4, 0x90
_edit_employees:                        ## @edit_employees
Lfunc_begin6:
	.loc	1 65 0                          ## edit_employee.c:65:0
	.cfi_startproc
## %bb.0:
	pushq	%rbp
	.cfi_def_cfa_offset 16
	.cfi_offset %rbp, -16
	movq	%rsp, %rbp
	.cfi_def_cfa_register %rbp
	subq	$64, %rsp
	movq	___stack_chk_guard@GOTPCREL(%rip), %rax
	movq	(%rax), %rax
	movq	%rax, -8(%rbp)
	movq	%rdi, -32(%rbp)
	movl	%esi, -36(%rbp)
Ltmp25:
	.loc	1 66 10 prologue_end            ## edit_employee.c:66:10
	movq	L___const.edit_employees.message1(%rip), %rax
	movq	%rax, -16(%rbp)
	.loc	1 67 9                          ## edit_employee.c:67:9
	movl	$0, -40(%rbp)
	.loc	1 68 15                         ## edit_employee.c:68:15
	movq	$0, -48(%rbp)
	.loc	1 69 9                          ## edit_employee.c:69:9
	movl	$-1, -52(%rbp)
	.loc	1 70 10                         ## edit_employee.c:70:10
	movq	L___const.edit_employees.message2(%rip), %rax
	movq	%rax, -24(%rbp)
	.loc	1 72 5                          ## edit_employee.c:72:5
	leaq	L_.str.4(%rip), %rdi
	movb	$0, %al
	callq	_printf
	.loc	1 73 15                         ## edit_employee.c:73:15
	callq	_next_int
	.loc	1 73 13 is_stmt 0               ## edit_employee.c:73:13
	movl	%eax, -40(%rbp)
LBB6_1:                                 ## =>This Inner Loop Header: Depth=1
	.loc	1 74 20 is_stmt 1               ## edit_employee.c:74:20
	cmpl	$999, -40(%rbp)                 ## imm = 0x3E7
	.loc	1 74 5 is_stmt 0                ## edit_employee.c:74:5
	je	LBB6_9
## %bb.2:                               ##   in Loop: Header=BB6_1 Depth=1
Ltmp26:
	.loc	1 76 16 is_stmt 1               ## edit_employee.c:76:16
	movq	-32(%rbp), %rax
	movslq	-40(%rbp), %rcx
	imulq	$68, %rcx, %rcx
	addq	%rcx, %rax
	.loc	1 76 13 is_stmt 0               ## edit_employee.c:76:13
	movq	%rax, -48(%rbp)
	.loc	1 78 9 is_stmt 1                ## edit_employee.c:78:9
	leaq	L_.str.5(%rip), %rdi
	movb	$0, %al
	callq	_printf
	.loc	1 79 35                         ## edit_employee.c:79:35
	movq	-48(%rbp), %rsi
	.loc	1 79 9 is_stmt 0                ## edit_employee.c:79:9
	leaq	L_.str.6(%rip), %rdi
	movb	$0, %al
	callq	_printf
	.loc	1 80 35 is_stmt 1               ## edit_employee.c:80:35
	movq	-48(%rbp), %rsi
	.loc	1 80 40 is_stmt 0               ## edit_employee.c:80:40
	addq	$36, %rsi
	.loc	1 80 9                          ## edit_employee.c:80:9
	leaq	L_.str.7(%rip), %rdi
	movb	$0, %al
	callq	_printf
	.loc	1 81 35 is_stmt 1               ## edit_employee.c:81:35
	movq	-48(%rbp), %rax
	.loc	1 81 40 is_stmt 0               ## edit_employee.c:81:40
	movl	32(%rax), %esi
	.loc	1 81 9                          ## edit_employee.c:81:9
	leaq	L_.str.8(%rip), %rdi
	movb	$0, %al
	callq	_printf
	.loc	1 83 9 is_stmt 1                ## edit_employee.c:83:9
	leaq	L_.str.9(%rip), %rdi
	movb	$0, %al
	callq	_printf
	.loc	1 84 9                          ## edit_employee.c:84:9
	leaq	L_.str.10(%rip), %rdi
	movb	$0, %al
	callq	_printf
	.loc	1 85 9                          ## edit_employee.c:85:9
	leaq	L_.str.11(%rip), %rdi
	movb	$0, %al
	callq	_printf
Ltmp27:
	.loc	1 86 29                         ## edit_employee.c:86:29
	cmpl	$1, -36(%rbp)
Ltmp28:
	.loc	1 86 13 is_stmt 0               ## edit_employee.c:86:13
	jl	LBB6_4
## %bb.3:                               ##   in Loop: Header=BB6_1 Depth=1
Ltmp29:
	.loc	1 88 13 is_stmt 1               ## edit_employee.c:88:13
	leaq	L_.str.12(%rip), %rdi
	movb	$0, %al
	callq	_printf
Ltmp30:
LBB6_4:                                 ##   in Loop: Header=BB6_1 Depth=1
	.loc	1 90 18                         ## edit_employee.c:90:18
	callq	_next_int
	.loc	1 90 16 is_stmt 0               ## edit_employee.c:90:16
	movl	%eax, -52(%rbp)
	.loc	1 92 17 is_stmt 1               ## edit_employee.c:92:17
	movl	-52(%rbp), %eax
	movl	%eax, -56(%rbp)                 ## 4-byte Spill
	.loc	1 92 9 is_stmt 0                ## edit_employee.c:92:9
	subl	$1, %eax
	je	LBB6_5
	jmp	LBB6_12
LBB6_12:                                ##   in Loop: Header=BB6_1 Depth=1
	.loc	1 0 9                           ## edit_employee.c:0:9
	movl	-56(%rbp), %eax                 ## 4-byte Reload
	.loc	1 92 9                          ## edit_employee.c:92:9
	subl	$2, %eax
	je	LBB6_6
	jmp	LBB6_13
LBB6_13:                                ##   in Loop: Header=BB6_1 Depth=1
	.loc	1 0 9                           ## edit_employee.c:0:9
	movl	-56(%rbp), %eax                 ## 4-byte Reload
	.loc	1 92 9                          ## edit_employee.c:92:9
	subl	$3, %eax
	je	LBB6_7
	jmp	LBB6_8
LBB6_5:                                 ##   in Loop: Header=BB6_1 Depth=1
Ltmp31:
	.loc	1 95 23 is_stmt 1               ## edit_employee.c:95:23
	movq	-48(%rbp), %rdi
	.loc	1 95 13 is_stmt 0               ## edit_employee.c:95:13
	callq	_edit_name
	.loc	1 96 13 is_stmt 1               ## edit_employee.c:96:13
	jmp	LBB6_8
LBB6_6:                                 ##   in Loop: Header=BB6_1 Depth=1
	.loc	1 98 24                         ## edit_employee.c:98:24
	movq	-48(%rbp), %rdi
	.loc	1 98 13 is_stmt 0               ## edit_employee.c:98:13
	callq	_edit_title
	.loc	1 99 13 is_stmt 1               ## edit_employee.c:99:13
	jmp	LBB6_8
LBB6_7:                                 ##   in Loop: Header=BB6_1 Depth=1
	.loc	1 101 25                        ## edit_employee.c:101:25
	movq	-48(%rbp), %rdi
	.loc	1 101 13 is_stmt 0              ## edit_employee.c:101:13
	callq	_edit_salary
Ltmp32:
LBB6_8:                                 ##   in Loop: Header=BB6_1 Depth=1
	.loc	1 105 9 is_stmt 1               ## edit_employee.c:105:9
	leaq	L_.str.13(%rip), %rdi
	movb	$0, %al
	callq	_printf
	.loc	1 106 35                        ## edit_employee.c:106:35
	movq	-48(%rbp), %rsi
	.loc	1 106 9 is_stmt 0               ## edit_employee.c:106:9
	leaq	L_.str.6(%rip), %rdi
	movb	$0, %al
	callq	_printf
	.loc	1 107 35 is_stmt 1              ## edit_employee.c:107:35
	movq	-48(%rbp), %rsi
	.loc	1 107 40 is_stmt 0              ## edit_employee.c:107:40
	addq	$36, %rsi
	.loc	1 107 9                         ## edit_employee.c:107:9
	leaq	L_.str.7(%rip), %rdi
	movb	$0, %al
	callq	_printf
	.loc	1 108 35 is_stmt 1              ## edit_employee.c:108:35
	movq	-48(%rbp), %rax
	.loc	1 108 40 is_stmt 0              ## edit_employee.c:108:40
	movl	32(%rax), %esi
	.loc	1 108 9                         ## edit_employee.c:108:9
	leaq	L_.str.8(%rip), %rdi
	movb	$0, %al
	callq	_printf
	.loc	1 110 39 is_stmt 1              ## edit_employee.c:110:39
	leaq	-16(%rbp), %rsi
	.loc	1 110 9 is_stmt 0               ## edit_employee.c:110:9
	leaq	L_.str.14(%rip), %rdi
	movb	$0, %al
	callq	_printf
	.loc	1 111 41 is_stmt 1              ## edit_employee.c:111:41
	movl	-36(%rbp), %esi
	.loc	1 111 9 is_stmt 0               ## edit_employee.c:111:9
	leaq	L_.str.15(%rip), %rdi
	movb	$0, %al
	callq	_printf
	.loc	1 112 39 is_stmt 1              ## edit_employee.c:112:39
	leaq	-24(%rbp), %rsi
	.loc	1 112 9 is_stmt 0               ## edit_employee.c:112:9
	leaq	L_.str.16(%rip), %rdi
	movb	$0, %al
	callq	_printf
	.loc	1 114 9 is_stmt 1               ## edit_employee.c:114:9
	leaq	L_.str.4(%rip), %rdi
	movb	$0, %al
	callq	_printf
	.loc	1 115 19                        ## edit_employee.c:115:19
	callq	_next_int
	.loc	1 115 17 is_stmt 0              ## edit_employee.c:115:17
	movl	%eax, -40(%rbp)
Ltmp33:
	.loc	1 74 5 is_stmt 1                ## edit_employee.c:74:5
	jmp	LBB6_1
LBB6_9:
	.loc	1 0 5 is_stmt 0                 ## edit_employee.c:0:5
	movq	___stack_chk_guard@GOTPCREL(%rip), %rax
	movq	(%rax), %rax
	movq	-8(%rbp), %rcx
	cmpq	%rcx, %rax
	jne	LBB6_11
## %bb.10:
	.loc	1 117 1 is_stmt 1               ## edit_employee.c:117:1
	addq	$64, %rsp
	popq	%rbp
	retq
LBB6_11:
	.loc	1 0 0 is_stmt 0                 ## edit_employee.c:0:0
	callq	___stack_chk_fail
	ud2
Ltmp34:
Lfunc_end6:
	.cfi_endproc
                                        ## -- End function
	.globl	_main                           ## -- Begin function main
	.p2align	4, 0x90
_main:                                  ## @main
Lfunc_begin7:
	.loc	1 120 0 is_stmt 1               ## edit_employee.c:120:0
	.cfi_startproc
## %bb.0:
	pushq	%rbp
	.cfi_def_cfa_offset 16
	.cfi_offset %rbp, -16
	movq	%rsp, %rbp
	.cfi_def_cfa_register %rbp
	subq	$240, %rsp
	movq	___stack_chk_guard@GOTPCREL(%rip), %rax
	movq	(%rax), %rax
	movq	%rax, -8(%rbp)
	movl	$0, -228(%rbp)
	movl	%edi, -232(%rbp)
	movq	%rsi, -240(%rbp)
Ltmp35:
	.loc	1 121 14 prologue_end           ## edit_employee.c:121:14
	leaq	-224(%rbp), %rdi
	leaq	l___const.main.employees(%rip), %rsi
	movl	$204, %edx
	callq	_memcpy
	.loc	1 126 20                        ## edit_employee.c:126:20
	leaq	-224(%rbp), %rdi
	.loc	1 126 5 is_stmt 0               ## edit_employee.c:126:5
	xorl	%esi, %esi
	callq	_edit_employees
	.loc	1 127 5 is_stmt 1               ## edit_employee.c:127:5
	leaq	L_.str.17(%rip), %rdi
	movb	$0, %al
	callq	_printf
	movq	___stack_chk_guard@GOTPCREL(%rip), %rax
	movq	(%rax), %rax
	movq	-8(%rbp), %rcx
	cmpq	%rcx, %rax
	jne	LBB7_2
## %bb.1:
	.loc	1 128 5                         ## edit_employee.c:128:5
	xorl	%eax, %eax
	addq	$240, %rsp
	popq	%rbp
	retq
LBB7_2:
	.loc	1 0 0 is_stmt 0                 ## edit_employee.c:0:0
	callq	___stack_chk_fail
	ud2
Ltmp36:
Lfunc_end7:
	.cfi_endproc
                                        ## -- End function
	.section	__TEXT,__cstring,cstring_literals
L_.str:                                 ## @.str
	.asciz	"%d"

.zerofill __DATA,__bss,_next_line.buffer,1024,4 ## @next_line.buffer
L_.str.1:                               ## @.str.1
	.asciz	"Enter the new name: "

L_.str.2:                               ## @.str.2
	.asciz	"Enter the new title: "

L_.str.3:                               ## @.str.3
	.asciz	"Enter the new salary: "

L___const.edit_employees.message1:      ## @__const.edit_employees.message1
	.asciz	"ABCDEFG"

L___const.edit_employees.message2:      ## @__const.edit_employees.message2
	.asciz	"abcdefg"

L_.str.4:                               ## @.str.4
	.asciz	"Enter number of employee to edit (or 999 to exit): "

L_.str.5:                               ## @.str.5
	.asciz	"Current employee: \n"

L_.str.6:                               ## @.str.6
	.asciz	"   Name:   %s\n"

L_.str.7:                               ## @.str.7
	.asciz	"   Title:  %s\n"

L_.str.8:                               ## @.str.8
	.asciz	"   Salary: %d\n"

L_.str.9:                               ## @.str.9
	.asciz	"What do you want to edit?\n"

L_.str.10:                              ## @.str.10
	.asciz	"   (1) Name\n"

L_.str.11:                              ## @.str.11
	.asciz	"   (2) Title\n"

L_.str.12:                              ## @.str.12
	.asciz	"   (3) Salary\n"

L_.str.13:                              ## @.str.13
	.asciz	"Updated employee: \n"

L_.str.14:                              ## @.str.14
	.asciz	"Message 1: =>%s<=\n"

L_.str.15:                              ## @.str.15
	.asciz	"Can edit salary: %d\n"

L_.str.16:                              ## @.str.16
	.asciz	"Message 2: =>%s<=\n"

	.section	__TEXT,__const
	.p2align	4                               ## @__const.main.employees
l___const.main.employees:
	.asciz	"George Washington\000\000\000\000\000\000\000\000\000\000\000\000\000\000"
	.long	43615                           ## 0xaa5f
	.asciz	"First President\000\000\000\000\000\000\000\000\000\000\000\000\000\000\000\000"
	.asciz	"John Adams\000\000\000\000\000\000\000\000\000\000\000\000\000\000\000\000\000\000\000\000\000"
	.long	55134                           ## 0xd75e
	.asciz	"Second President\000\000\000\000\000\000\000\000\000\000\000\000\000\000\000"
	.asciz	"Thomas Jefferson\000\000\000\000\000\000\000\000\000\000\000\000\000\000\000"
	.long	61143                           ## 0xeed7
	.asciz	"Third President\000\000\000\000\000\000\000\000\000\000\000\000\000\000\000\000"

	.section	__TEXT,__cstring,cstring_literals
L_.str.17:                              ## @.str.17
	.asciz	"Good-bye.\n"
