	.section	__TEXT,__text,regular,pure_instructions
	.build_version macos, 13, 0	sdk_version 13, 3
	.file	1 "/Users/kurmasz/Documents/DiveIntoSystems/dis_buffer/problem_2" "edit_employee.c"
	.globl	_next_int                       ## -- Begin function next_int
	.p2align	4, 0x90
_next_int:                              ## @next_int
Lfunc_begin0:
	.loc	1 14 0                          ## edit_employee.c:14:0
	.cfi_startproc
## %bb.0:
	pushq	%rbp
	.cfi_def_cfa_offset 16
	.cfi_offset %rbp, -16
	movq	%rsp, %rbp
	.cfi_def_cfa_register %rbp
	subq	$16, %rsp
Ltmp0:
	.loc	1 16 5 prologue_end             ## edit_employee.c:16:5
	leaq	L_.str(%rip), %rdi
	leaq	-4(%rbp), %rsi
	movb	$0, %al
	callq	_scanf
LBB0_1:                                 ## =>This Inner Loop Header: Depth=1
	.loc	1 17 12                         ## edit_employee.c:17:12
	callq	_getchar
	.loc	1 17 22 is_stmt 0               ## edit_employee.c:17:22
	cmpl	$10, %eax
	.loc	1 17 5                          ## edit_employee.c:17:5
	je	LBB0_3
## %bb.2:                               ##   in Loop: Header=BB0_1 Depth=1
	jmp	LBB0_1
LBB0_3:
	.loc	1 19 12 is_stmt 1               ## edit_employee.c:19:12
	movl	-4(%rbp), %eax
	.loc	1 19 5 is_stmt 0                ## edit_employee.c:19:5
	addq	$16, %rsp
	popq	%rbp
	retq
Ltmp1:
Lfunc_end0:
	.cfi_endproc
                                        ## -- End function
	.globl	_my_strncpy                     ## -- Begin function my_strncpy
	.p2align	4, 0x90
_my_strncpy:                            ## @my_strncpy
Lfunc_begin1:
	.loc	1 23 0 is_stmt 1                ## edit_employee.c:23:0
	.cfi_startproc
## %bb.0:
	pushq	%rbp
	.cfi_def_cfa_offset 16
	.cfi_offset %rbp, -16
	movq	%rsp, %rbp
	.cfi_def_cfa_register %rbp
	movq	%rdi, -8(%rbp)
	movq	%rsi, -16(%rbp)
	movl	%edx, -20(%rbp)
Ltmp2:
	.loc	1 25 14 prologue_end            ## edit_employee.c:25:14
	movl	$0, -24(%rbp)
LBB1_1:                                 ## =>This Inner Loop Header: Depth=1
Ltmp3:
	.loc	1 25 21 is_stmt 0               ## edit_employee.c:25:21
	movl	-24(%rbp), %eax
	.loc	1 25 23                         ## edit_employee.c:25:23
	cmpl	-20(%rbp), %eax
Ltmp4:
	.loc	1 25 5                          ## edit_employee.c:25:5
	jge	LBB1_6
## %bb.2:                               ##   in Loop: Header=BB1_1 Depth=1
Ltmp5:
	.loc	1 27 19 is_stmt 1               ## edit_employee.c:27:19
	movq	-16(%rbp), %rax
	movslq	-24(%rbp), %rcx
	movb	(%rax,%rcx), %dl
	.loc	1 27 9 is_stmt 0                ## edit_employee.c:27:9
	movq	-8(%rbp), %rax
	movslq	-24(%rbp), %rcx
	.loc	1 27 17                         ## edit_employee.c:27:17
	movb	%dl, (%rax,%rcx)
Ltmp6:
	.loc	1 28 13 is_stmt 1               ## edit_employee.c:28:13
	movq	-16(%rbp), %rax
	movslq	-24(%rbp), %rcx
	movsbl	(%rax,%rcx), %eax
	.loc	1 28 20 is_stmt 0               ## edit_employee.c:28:20
	cmpl	$0, %eax
Ltmp7:
	.loc	1 28 13                         ## edit_employee.c:28:13
	jne	LBB1_4
## %bb.3:
Ltmp8:
	.loc	1 30 13 is_stmt 1               ## edit_employee.c:30:13
	jmp	LBB1_6
Ltmp9:
LBB1_4:                                 ##   in Loop: Header=BB1_1 Depth=1
	.loc	1 32 5                          ## edit_employee.c:32:5
	jmp	LBB1_5
Ltmp10:
LBB1_5:                                 ##   in Loop: Header=BB1_1 Depth=1
	.loc	1 25 28                         ## edit_employee.c:25:28
	movl	-24(%rbp), %eax
	addl	$1, %eax
	movl	%eax, -24(%rbp)
	.loc	1 25 5 is_stmt 0                ## edit_employee.c:25:5
	jmp	LBB1_1
Ltmp11:
LBB1_6:
	.loc	1 33 1 is_stmt 1                ## edit_employee.c:33:1
	popq	%rbp
	retq
Ltmp12:
Lfunc_end1:
	.cfi_endproc
                                        ## -- End function
	.globl	_next_line                      ## -- Begin function next_line
	.p2align	4, 0x90
_next_line:                             ## @next_line
Lfunc_begin2:
	.loc	1 38 0                          ## edit_employee.c:38:0
	.cfi_startproc
## %bb.0:
	pushq	%rbp
	.cfi_def_cfa_offset 16
	.cfi_offset %rbp, -16
	movq	%rsp, %rbp
	.cfi_def_cfa_register %rbp
	subq	$16, %rsp
	movq	%rdi, -8(%rbp)
	movl	%esi, -12(%rbp)
Ltmp13:
	.loc	1 40 25 prologue_end            ## edit_employee.c:40:25
	movq	___stdinp@GOTPCREL(%rip), %rax
	movq	(%rax), %rdx
	.loc	1 40 5 is_stmt 0                ## edit_employee.c:40:5
	leaq	_next_line.buffer(%rip), %rdi
	movl	$1024, %esi                     ## imm = 0x400
	callq	_fgets
	.loc	1 41 16 is_stmt 1               ## edit_employee.c:41:16
	leaq	_next_line.buffer(%rip), %rdi
	callq	_strlen
	.loc	1 41 31 is_stmt 0               ## edit_employee.c:41:31
	subq	$1, %rax
                                        ## kill: def $eax killed $eax killed $rax
	.loc	1 41 9                          ## edit_employee.c:41:9
	movl	%eax, -16(%rbp)
Ltmp14:
	.loc	1 42 9 is_stmt 1                ## edit_employee.c:42:9
	movslq	-16(%rbp), %rcx
	leaq	_next_line.buffer(%rip), %rax
	movsbl	(%rax,%rcx), %eax
	.loc	1 42 22 is_stmt 0               ## edit_employee.c:42:22
	cmpl	$10, %eax
Ltmp15:
	.loc	1 42 9                          ## edit_employee.c:42:9
	jne	LBB2_2
## %bb.1:
Ltmp16:
	.loc	1 44 9 is_stmt 1                ## edit_employee.c:44:9
	movslq	-16(%rbp), %rcx
	.loc	1 44 22 is_stmt 0               ## edit_employee.c:44:22
	leaq	_next_line.buffer(%rip), %rax
	movb	$0, (%rax,%rcx)
Ltmp17:
LBB2_2:
	.loc	1 46 16 is_stmt 1               ## edit_employee.c:46:16
	movq	-8(%rbp), %rdi
	.loc	1 46 32 is_stmt 0               ## edit_employee.c:46:32
	movl	-12(%rbp), %edx
	.loc	1 46 5                          ## edit_employee.c:46:5
	leaq	_next_line.buffer(%rip), %rsi
	callq	_my_strncpy
	.loc	1 47 1 is_stmt 1                ## edit_employee.c:47:1
	addq	$16, %rsp
	popq	%rbp
	retq
Ltmp18:
Lfunc_end2:
	.cfi_endproc
                                        ## -- End function
	.globl	_edit_name                      ## -- Begin function edit_name
	.p2align	4, 0x90
_edit_name:                             ## @edit_name
Lfunc_begin3:
	.loc	1 50 0                          ## edit_employee.c:50:0
	.cfi_startproc
## %bb.0:
	pushq	%rbp
	.cfi_def_cfa_offset 16
	.cfi_offset %rbp, -16
	movq	%rsp, %rbp
	.cfi_def_cfa_register %rbp
	subq	$16, %rsp
	movq	%rdi, -8(%rbp)
Ltmp19:
	.loc	1 51 5 prologue_end             ## edit_employee.c:51:5
	leaq	L_.str.1(%rip), %rdi
	movb	$0, %al
	callq	_printf
	.loc	1 52 15                         ## edit_employee.c:52:15
	movq	-8(%rbp), %rdi
	.loc	1 52 5 is_stmt 0                ## edit_employee.c:52:5
	movl	$32, %esi
	callq	_next_line
	.loc	1 53 1 is_stmt 1                ## edit_employee.c:53:1
	addq	$16, %rsp
	popq	%rbp
	retq
Ltmp20:
Lfunc_end3:
	.cfi_endproc
                                        ## -- End function
	.globl	_edit_title                     ## -- Begin function edit_title
	.p2align	4, 0x90
_edit_title:                            ## @edit_title
Lfunc_begin4:
	.loc	1 56 0                          ## edit_employee.c:56:0
	.cfi_startproc
## %bb.0:
	pushq	%rbp
	.cfi_def_cfa_offset 16
	.cfi_offset %rbp, -16
	movq	%rsp, %rbp
	.cfi_def_cfa_register %rbp
	subq	$16, %rsp
	movq	%rdi, -8(%rbp)
Ltmp21:
	.loc	1 57 5 prologue_end             ## edit_employee.c:57:5
	leaq	L_.str.2(%rip), %rdi
	movb	$0, %al
	callq	_printf
	.loc	1 58 15                         ## edit_employee.c:58:15
	movq	-8(%rbp), %rdi
	.loc	1 58 20 is_stmt 0               ## edit_employee.c:58:20
	addq	$36, %rdi
	.loc	1 58 5                          ## edit_employee.c:58:5
	movl	$32, %esi
	callq	_next_line
	.loc	1 59 1 is_stmt 1                ## edit_employee.c:59:1
	addq	$16, %rsp
	popq	%rbp
	retq
Ltmp22:
Lfunc_end4:
	.cfi_endproc
                                        ## -- End function
	.globl	_edit_salary                    ## -- Begin function edit_salary
	.p2align	4, 0x90
_edit_salary:                           ## @edit_salary
Lfunc_begin5:
	.loc	1 62 0                          ## edit_employee.c:62:0
	.cfi_startproc
## %bb.0:
	pushq	%rbp
	.cfi_def_cfa_offset 16
	.cfi_offset %rbp, -16
	movq	%rsp, %rbp
	.cfi_def_cfa_register %rbp
	subq	$16, %rsp
	movq	%rdi, -8(%rbp)
Ltmp23:
	.loc	1 63 5 prologue_end             ## edit_employee.c:63:5
	leaq	L_.str.3(%rip), %rdi
	movb	$0, %al
	callq	_printf
	.loc	1 64 18                         ## edit_employee.c:64:18
	movq	-8(%rbp), %rsi
	.loc	1 64 23 is_stmt 0               ## edit_employee.c:64:23
	addq	$32, %rsi
	.loc	1 64 5                          ## edit_employee.c:64:5
	leaq	L_.str(%rip), %rdi
	movb	$0, %al
	callq	_scanf
	.loc	1 65 1 is_stmt 1                ## edit_employee.c:65:1
	addq	$16, %rsp
	popq	%rbp
	retq
Ltmp24:
Lfunc_end5:
	.cfi_endproc
                                        ## -- End function
	.globl	_edit_employees                 ## -- Begin function edit_employees
	.p2align	4, 0x90
_edit_employees:                        ## @edit_employees
Lfunc_begin6:
	.loc	1 68 0                          ## edit_employee.c:68:0
	.cfi_startproc
## %bb.0:
	pushq	%rbp
	.cfi_def_cfa_offset 16
	.cfi_offset %rbp, -16
	movq	%rsp, %rbp
	.cfi_def_cfa_register %rbp
	subq	$48, %rsp
	movq	%rdi, -8(%rbp)
	movl	%esi, -12(%rbp)
	movl	%edx, -16(%rbp)
Ltmp25:
	.loc	1 69 9 prologue_end             ## edit_employee.c:69:9
	movl	$-2, -20(%rbp)
	.loc	1 70 15                         ## edit_employee.c:70:15
	movq	$0, -32(%rbp)
	.loc	1 71 9                          ## edit_employee.c:71:9
	movl	$-1, -36(%rbp)
	.loc	1 72 28                         ## edit_employee.c:72:28
	xorl	%eax, %eax
                                        ## kill: def $al killed $al killed $eax
	cmpl	$0, -12(%rbp)
	movb	%al, -41(%rbp)                  ## 1-byte Spill
	.loc	1 72 44 is_stmt 0               ## edit_employee.c:72:44
	je	LBB6_2
## %bb.1:
	cmpl	$0, -16(%rbp)
	setne	%al
	movb	%al, -41(%rbp)                  ## 1-byte Spill
LBB6_2:
	.loc	1 0 44                          ## edit_employee.c:0:44
	movb	-41(%rbp), %al                  ## 1-byte Reload
	.loc	1 72 44                         ## edit_employee.c:72:44
	andb	$1, %al
	movzbl	%al, %eax
	.loc	1 72 9                          ## edit_employee.c:72:9
	movl	%eax, -40(%rbp)
	.loc	1 74 5 is_stmt 1                ## edit_employee.c:74:5
	leaq	L_.str.4(%rip), %rdi
	movb	$0, %al
	callq	_printf
	.loc	1 75 15                         ## edit_employee.c:75:15
	callq	_next_int
	.loc	1 75 13 is_stmt 0               ## edit_employee.c:75:13
	movl	%eax, -20(%rbp)
LBB6_3:                                 ## =>This Loop Header: Depth=1
                                        ##     Child Loop BB6_5 Depth 2
	.loc	1 76 20 is_stmt 1               ## edit_employee.c:76:20
	cmpl	$999, -20(%rbp)                 ## imm = 0x3E7
	.loc	1 76 5 is_stmt 0                ## edit_employee.c:76:5
	je	LBB6_18
## %bb.4:                               ##   in Loop: Header=BB6_3 Depth=1
Ltmp26:
	.loc	1 78 16 is_stmt 1               ## edit_employee.c:78:16
	movq	-8(%rbp), %rax
	movslq	-20(%rbp), %rcx
	imulq	$68, %rcx, %rcx
	addq	%rcx, %rax
	.loc	1 78 13 is_stmt 0               ## edit_employee.c:78:13
	movq	%rax, -32(%rbp)
	.loc	1 80 9 is_stmt 1                ## edit_employee.c:80:9
	leaq	L_.str.5(%rip), %rdi
	movb	$0, %al
	callq	_printf
	.loc	1 81 35                         ## edit_employee.c:81:35
	movq	-32(%rbp), %rsi
	.loc	1 81 9 is_stmt 0                ## edit_employee.c:81:9
	leaq	L_.str.6(%rip), %rdi
	movb	$0, %al
	callq	_printf
	.loc	1 82 35 is_stmt 1               ## edit_employee.c:82:35
	movq	-32(%rbp), %rsi
	.loc	1 82 40 is_stmt 0               ## edit_employee.c:82:40
	addq	$36, %rsi
	.loc	1 82 9                          ## edit_employee.c:82:9
	leaq	L_.str.7(%rip), %rdi
	movb	$0, %al
	callq	_printf
	.loc	1 83 35 is_stmt 1               ## edit_employee.c:83:35
	movq	-32(%rbp), %rax
	.loc	1 83 40 is_stmt 0               ## edit_employee.c:83:40
	movl	32(%rax), %esi
	.loc	1 83 9                          ## edit_employee.c:83:9
	leaq	L_.str.8(%rip), %rdi
	movb	$0, %al
	callq	_printf
	.loc	1 85 36 is_stmt 1               ## edit_employee.c:85:36
	movq	-32(%rbp), %rsi
	.loc	1 85 9 is_stmt 0                ## edit_employee.c:85:9
	leaq	L_.str.9(%rip), %rdi
	movb	$0, %al
	callq	_printf
	.loc	1 86 43 is_stmt 1               ## edit_employee.c:86:43
	leaq	-40(%rbp), %rsi
	.loc	1 86 69 is_stmt 0               ## edit_employee.c:86:69
	leaq	-40(%rbp), %rdx
	.loc	1 86 104                        ## edit_employee.c:86:104
	movq	-32(%rbp), %rax
	.loc	1 86 95                         ## edit_employee.c:86:95
	subq	%rax, %rdx
	.loc	1 86 9                          ## edit_employee.c:86:9
	leaq	L_.str.10(%rip), %rdi
	movb	$0, %al
	callq	_printf
	.loc	1 87 36 is_stmt 1               ## edit_employee.c:87:36
	leaq	-16(%rbp), %rsi
	.loc	1 87 9 is_stmt 0                ## edit_employee.c:87:9
	leaq	L_.str.11(%rip), %rdi
	movb	$0, %al
	callq	_printf
LBB6_5:                                 ##   Parent Loop BB6_3 Depth=1
                                        ## =>  This Inner Loop Header: Depth=2
Ltmp27:
	.loc	1 91 13 is_stmt 1               ## edit_employee.c:91:13
	leaq	L_.str.12(%rip), %rdi
	movb	$0, %al
	callq	_printf
	.loc	1 92 13                         ## edit_employee.c:92:13
	leaq	L_.str.13(%rip), %rdi
	movb	$0, %al
	callq	_printf
	.loc	1 93 13                         ## edit_employee.c:93:13
	leaq	L_.str.14(%rip), %rdi
	movb	$0, %al
	callq	_printf
Ltmp28:
	.loc	1 94 17                         ## edit_employee.c:94:17
	cmpl	$0, -40(%rbp)
Ltmp29:
	.loc	1 94 17 is_stmt 0               ## edit_employee.c:94:17
	je	LBB6_7
## %bb.6:                               ##   in Loop: Header=BB6_5 Depth=2
Ltmp30:
	.loc	1 96 17 is_stmt 1               ## edit_employee.c:96:17
	leaq	L_.str.15(%rip), %rdi
	movb	$0, %al
	callq	_printf
Ltmp31:
LBB6_7:                                 ##   in Loop: Header=BB6_5 Depth=2
	.loc	1 98 22                         ## edit_employee.c:98:22
	callq	_next_int
	.loc	1 98 20 is_stmt 0               ## edit_employee.c:98:20
	movl	%eax, -36(%rbp)
Ltmp32:
	.loc	1 99 25 is_stmt 1               ## edit_employee.c:99:25
	cmpl	$1, -36(%rbp)
	.loc	1 99 30 is_stmt 0               ## edit_employee.c:99:30
	jl	LBB6_9
## %bb.8:                               ##   in Loop: Header=BB6_5 Depth=2
	.loc	1 99 40                         ## edit_employee.c:99:40
	cmpl	$2, -36(%rbp)
	.loc	1 99 46                         ## edit_employee.c:99:46
	jle	LBB6_11
LBB6_9:                                 ##   in Loop: Header=BB6_5 Depth=2
	.loc	1 99 57                         ## edit_employee.c:99:57
	cmpl	$3, -36(%rbp)
	.loc	1 99 62                         ## edit_employee.c:99:62
	jne	LBB6_12
## %bb.10:                              ##   in Loop: Header=BB6_5 Depth=2
	.loc	1 99 65                         ## edit_employee.c:99:65
	cmpl	$0, -40(%rbp)
Ltmp33:
	.loc	1 99 17                         ## edit_employee.c:99:17
	je	LBB6_12
LBB6_11:                                ##   in Loop: Header=BB6_3 Depth=1
Ltmp34:
	.loc	1 101 17 is_stmt 1              ## edit_employee.c:101:17
	jmp	LBB6_13
Ltmp35:
LBB6_12:                                ##   in Loop: Header=BB6_5 Depth=2
	.loc	1 89 9                          ## edit_employee.c:89:9
	jmp	LBB6_5
LBB6_13:                                ##   in Loop: Header=BB6_3 Depth=1
	.loc	1 105 17                        ## edit_employee.c:105:17
	movl	-36(%rbp), %eax
	movl	%eax, -48(%rbp)                 ## 4-byte Spill
	.loc	1 105 9 is_stmt 0               ## edit_employee.c:105:9
	subl	$1, %eax
	je	LBB6_14
	jmp	LBB6_19
LBB6_19:                                ##   in Loop: Header=BB6_3 Depth=1
	.loc	1 0 9                           ## edit_employee.c:0:9
	movl	-48(%rbp), %eax                 ## 4-byte Reload
	.loc	1 105 9                         ## edit_employee.c:105:9
	subl	$2, %eax
	je	LBB6_15
	jmp	LBB6_20
LBB6_20:                                ##   in Loop: Header=BB6_3 Depth=1
	.loc	1 0 9                           ## edit_employee.c:0:9
	movl	-48(%rbp), %eax                 ## 4-byte Reload
	.loc	1 105 9                         ## edit_employee.c:105:9
	subl	$3, %eax
	je	LBB6_16
	jmp	LBB6_17
LBB6_14:                                ##   in Loop: Header=BB6_3 Depth=1
Ltmp36:
	.loc	1 108 23 is_stmt 1              ## edit_employee.c:108:23
	movq	-32(%rbp), %rdi
	.loc	1 108 13 is_stmt 0              ## edit_employee.c:108:13
	callq	_edit_name
	.loc	1 109 13 is_stmt 1              ## edit_employee.c:109:13
	jmp	LBB6_17
LBB6_15:                                ##   in Loop: Header=BB6_3 Depth=1
	.loc	1 111 24                        ## edit_employee.c:111:24
	movq	-32(%rbp), %rdi
	.loc	1 111 13 is_stmt 0              ## edit_employee.c:111:13
	callq	_edit_title
	.loc	1 112 13 is_stmt 1              ## edit_employee.c:112:13
	jmp	LBB6_17
LBB6_16:                                ##   in Loop: Header=BB6_3 Depth=1
	.loc	1 114 25                        ## edit_employee.c:114:25
	movq	-32(%rbp), %rdi
	.loc	1 114 13 is_stmt 0              ## edit_employee.c:114:13
	callq	_edit_salary
Ltmp37:
LBB6_17:                                ##   in Loop: Header=BB6_3 Depth=1
	.loc	1 118 9 is_stmt 1               ## edit_employee.c:118:9
	leaq	L_.str.16(%rip), %rdi
	movb	$0, %al
	callq	_printf
	.loc	1 119 35                        ## edit_employee.c:119:35
	movq	-32(%rbp), %rsi
	.loc	1 119 9 is_stmt 0               ## edit_employee.c:119:9
	leaq	L_.str.6(%rip), %rdi
	movb	$0, %al
	callq	_printf
	.loc	1 120 35 is_stmt 1              ## edit_employee.c:120:35
	movq	-32(%rbp), %rsi
	.loc	1 120 40 is_stmt 0              ## edit_employee.c:120:40
	addq	$36, %rsi
	.loc	1 120 9                         ## edit_employee.c:120:9
	leaq	L_.str.7(%rip), %rdi
	movb	$0, %al
	callq	_printf
	.loc	1 121 35 is_stmt 1              ## edit_employee.c:121:35
	movq	-32(%rbp), %rax
	.loc	1 121 40 is_stmt 0              ## edit_employee.c:121:40
	movl	32(%rax), %esi
	.loc	1 121 9                         ## edit_employee.c:121:9
	leaq	L_.str.8(%rip), %rdi
	movb	$0, %al
	callq	_printf
	.loc	1 123 41 is_stmt 1              ## edit_employee.c:123:41
	movl	-16(%rbp), %esi
	.loc	1 123 9 is_stmt 0               ## edit_employee.c:123:9
	leaq	L_.str.17(%rip), %rdi
	movb	$0, %al
	callq	_printf
	.loc	1 125 9 is_stmt 1               ## edit_employee.c:125:9
	leaq	L_.str.4(%rip), %rdi
	movb	$0, %al
	callq	_printf
	.loc	1 126 19                        ## edit_employee.c:126:19
	callq	_next_int
	.loc	1 126 17 is_stmt 0              ## edit_employee.c:126:17
	movl	%eax, -20(%rbp)
Ltmp38:
	.loc	1 76 5 is_stmt 1                ## edit_employee.c:76:5
	jmp	LBB6_3
LBB6_18:
	.loc	1 128 1                         ## edit_employee.c:128:1
	addq	$48, %rsp
	popq	%rbp
	retq
Ltmp39:
Lfunc_end6:
	.cfi_endproc
                                        ## -- End function
	.globl	_main                           ## -- Begin function main
	.p2align	4, 0x90
_main:                                  ## @main
Lfunc_begin7:
	.loc	1 131 0                         ## edit_employee.c:131:0
	.cfi_startproc
## %bb.0:
	pushq	%rbp
	.cfi_def_cfa_offset 16
	.cfi_offset %rbp, -16
	movq	%rsp, %rbp
	.cfi_def_cfa_register %rbp
	subq	$240, %rsp
	movq	___stack_chk_guard@GOTPCREL(%rip), %rax
	movq	(%rax), %rax
	movq	%rax, -8(%rbp)
	movl	$0, -228(%rbp)
	movl	%edi, -232(%rbp)
	movq	%rsi, -240(%rbp)
Ltmp40:
	.loc	1 132 14 prologue_end           ## edit_employee.c:132:14
	leaq	-224(%rbp), %rdi
	leaq	l___const.main.employees(%rip), %rsi
	movl	$204, %edx
	callq	_memcpy
	.loc	1 137 20                        ## edit_employee.c:137:20
	leaq	-224(%rbp), %rdi
	.loc	1 137 5 is_stmt 0               ## edit_employee.c:137:5
	movl	$1, %esi
	xorl	%edx, %edx
	callq	_edit_employees
	.loc	1 138 5 is_stmt 1               ## edit_employee.c:138:5
	leaq	L_.str.18(%rip), %rdi
	movb	$0, %al
	callq	_printf
	movq	___stack_chk_guard@GOTPCREL(%rip), %rax
	movq	(%rax), %rax
	movq	-8(%rbp), %rcx
	cmpq	%rcx, %rax
	jne	LBB7_2
## %bb.1:
	.loc	1 139 5                         ## edit_employee.c:139:5
	xorl	%eax, %eax
	addq	$240, %rsp
	popq	%rbp
	retq
LBB7_2:
	.loc	1 0 0 is_stmt 0                 ## edit_employee.c:0:0
	callq	___stack_chk_fail
	ud2
Ltmp41:
Lfunc_end7:
	.cfi_endproc
                                        ## -- End function
	.section	__TEXT,__cstring,cstring_literals
L_.str:                                 ## @.str
	.asciz	"%d"

.zerofill __DATA,__bss,_next_line.buffer,1024,4 ## @next_line.buffer
L_.str.1:                               ## @.str.1
	.asciz	"Enter the new name: "

L_.str.2:                               ## @.str.2
	.asciz	"Enter the new title: "

L_.str.3:                               ## @.str.3
	.asciz	"Enter the new salary: "

L_.str.4:                               ## @.str.4
	.asciz	"Enter number of employee to edit (or 999 to exit): "

L_.str.5:                               ## @.str.5
	.asciz	"Current employee: \n"

L_.str.6:                               ## @.str.6
	.asciz	"   Name:   %s\n"

L_.str.7:                               ## @.str.7
	.asciz	"   Title:  %s\n"

L_.str.8:                               ## @.str.8
	.asciz	"   Salary: %d\n"

L_.str.9:                               ## @.str.9
	.asciz	"       emp: %p\n"

L_.str.10:                              ## @.str.10
	.asciz	"    target: %p  (%ld)\n"

L_.str.11:                              ## @.str.11
	.asciz	"    bottom: %p\n"

L_.str.12:                              ## @.str.12
	.asciz	"What do you want to edit?\n"

L_.str.13:                              ## @.str.13
	.asciz	"   (1) Name\n"

L_.str.14:                              ## @.str.14
	.asciz	"   (2) Title\n"

L_.str.15:                              ## @.str.15
	.asciz	"   (3) Salary\n"

L_.str.16:                              ## @.str.16
	.asciz	"Updated employee: \n"

L_.str.17:                              ## @.str.17
	.asciz	"Can edit salary: %d\n"

	.section	__TEXT,__const
	.p2align	4                               ## @__const.main.employees
l___const.main.employees:
	.asciz	"George Washington\000\000\000\000\000\000\000\000\000\000\000\000\000\000"
	.long	43615                           ## 0xaa5f
	.asciz	"First President\000\000\000\000\000\000\000\000\000\000\000\000\000\000\000\000"
	.asciz	"John Adams\000\000\000\000\000\000\000\000\000\000\000\000\000\000\000\000\000\000\000\000\000"
	.long	55134                           ## 0xd75e
	.asciz	"Second President\000\000\000\000\000\000\000\000\000\000\000\000\000\000\000"
	.asciz	"Thomas Jefferson\000\000\000\000\000\000\000\000\000\000\000\000\000\000\000"
	.long	61143                           ## 0xeed7
	.asciz	"Third President\000\000\000\000\000\000\000\000\000\000\000\000\000\000\000\000"

	.section	__TEXT,__cstring,cstring_literals
L_.str.18:                              ## @.str.18
	.asciz	"Good-bye.\n"
